GAS LISTING asm80386_x.s 			page 1


   1              		.file	"asm80386.c"
   2              		.text
   3              		.globl	_a_sym_code
   4              		.data
   5              	LC0:
   6 0000 61616100 		.ascii "aaa\0"
   7              	LC1:
   8 0004 61616400 		.ascii "aad\0"
   9              	LC2:
  10 0008 61616D00 		.ascii "aam\0"
  11              	LC3:
  12 000c 61617300 		.ascii "aas\0"
  13              	LC4:
  14 0010 61646300 		.ascii "adc\0"
  15              	LC5:
  16 0014 61646400 		.ascii "add\0"
  17              	LC6:
  18 0018 616E6400 		.ascii "and\0"
  19              	LC7:
  20 001c 63616C6C 		.ascii "call\0"
  20      00
  21              	LC8:
  22 0021 63627700 		.ascii "cbw\0"
  23              	LC9:
  24 0025 636D7000 		.ascii "cmp\0"
  25              	LC10:
  26 0029 63776400 		.ascii "cwd\0"
  27              	LC11:
  28 002d 636C6300 		.ascii "clc\0"
  29              	LC12:
  30 0031 636C6400 		.ascii "cld\0"
  31              	LC13:
  32 0035 636C6900 		.ascii "cli\0"
  33              	LC14:
  34 0039 636D6300 		.ascii "cmc\0"
  35              	LC15:
  36 003d 64616100 		.ascii "daa\0"
  37              	LC16:
  38 0041 64617300 		.ascii "das\0"
  39              	LC17:
  40 0045 64656300 		.ascii "dec\0"
  41              	LC18:
  42 0049 64697600 		.ascii "div\0"
  43              	LC19:
  44 004d 686C7400 		.ascii "hlt\0"
  45              	LC20:
  46 0051 69646976 		.ascii "idiv\0"
  46      00
  47              	LC21:
  48 0056 696D756C 		.ascii "imul\0"
  48      00
  49              	LC22:
  50 005b 696E6300 		.ascii "inc\0"
  51              	LC23:
  52 005f 696E7433 		.ascii "int3\0"
  52      00
  53              	LC24:
GAS LISTING asm80386_x.s 			page 2


  54 0064 696E7400 		.ascii "int\0"
  55              	LC25:
  56 0068 696E746F 		.ascii "into\0"
  56      00
  57              	LC26:
  58 006d 69726574 		.ascii "iret\0"
  58      00
  59              	LC27:
  60 0072 6A6100   		.ascii "ja\0"
  61              	LC28:
  62 0075 6A616500 		.ascii "jae\0"
  63              	LC29:
  64 0079 6A6200   		.ascii "jb\0"
  65              	LC30:
  66 007c 6A626500 		.ascii "jbe\0"
  67              	LC31:
  68 0080 6A6300   		.ascii "jc\0"
  69              	LC32:
  70 0083 6A6500   		.ascii "je\0"
  71              	LC33:
  72 0086 6A6700   		.ascii "jg\0"
  73              	LC34:
  74 0089 6A676500 		.ascii "jge\0"
  75              	LC35:
  76 008d 6A6C00   		.ascii "jl\0"
  77              	LC36:
  78 0090 6A6C6500 		.ascii "jle\0"
  79              	LC37:
  80 0094 6A6E6100 		.ascii "jna\0"
  81              	LC38:
  82 0098 6A6E6165 		.ascii "jnae\0"
  82      00
  83              	LC39:
  84 009d 6A6E6200 		.ascii "jnb\0"
  85              	LC40:
  86 00a1 6A6E6265 		.ascii "jnbe\0"
  86      00
  87              	LC41:
  88 00a6 6A6E6300 		.ascii "jnc\0"
  89              	LC42:
  90 00aa 6A6E6500 		.ascii "jne\0"
  91              	LC43:
  92 00ae 6A6E6700 		.ascii "jng\0"
  93              	LC44:
  94 00b2 6A6E6765 		.ascii "jnge\0"
  94      00
  95              	LC45:
  96 00b7 6A6E6C00 		.ascii "jnl\0"
  97              	LC46:
  98 00bb 6A6E6C65 		.ascii "jnle\0"
  98      00
  99              	LC47:
 100 00c0 6A6E6F00 		.ascii "jno\0"
 101              	LC48:
 102 00c4 6A6E7300 		.ascii "jns\0"
 103              	LC49:
 104 00c8 6A6E7A00 		.ascii "jnz\0"
GAS LISTING asm80386_x.s 			page 3


 105              	LC50:
 106 00cc 6A6F00   		.ascii "jo\0"
 107              	LC51:
 108 00cf 6A706500 		.ascii "jpe\0"
 109              	LC52:
 110 00d3 6A706F00 		.ascii "jpo\0"
 111              	LC53:
 112 00d7 6A7300   		.ascii "js\0"
 113              	LC54:
 114 00da 6A7A00   		.ascii "jz\0"
 115              	LC55:
 116 00dd 6A6D7000 		.ascii "jmp\0"
 117              	LC56:
 118 00e1 6C616866 		.ascii "lahf\0"
 118      00
 119              	LC57:
 120 00e6 6D6F7600 		.ascii "mov\0"
 121              	LC58:
 122 00ea 6D756C00 		.ascii "mul\0"
 123              	LC59:
 124 00ee 6E656700 		.ascii "neg\0"
 125              	LC60:
 126 00f2 6E6F7000 		.ascii "nop\0"
 127              	LC61:
 128 00f6 6E6F7400 		.ascii "not\0"
 129              	LC62:
 130 00fa 6F7200   		.ascii "or\0"
 131              	LC63:
 132 00fd 706F7000 		.ascii "pop\0"
 133              	LC64:
 134 0101 706F7066 		.ascii "popf\0"
 134      00
 135              	LC65:
 136 0106 70757368 		.ascii "push\0"
 136      00
 137              	LC66:
 138 010b 70757368 		.ascii "pushf\0"
 138      6600
 139              	LC67:
 140 0111 72636C00 		.ascii "rcl\0"
 141              	LC68:
 142 0115 72637200 		.ascii "rcr\0"
 143              	LC69:
 144 0119 72657400 		.ascii "ret\0"
 145              	LC70:
 146 011d 72657466 		.ascii "retf\0"
 146      00
 147              	LC71:
 148 0122 726F6C00 		.ascii "rol\0"
 149              	LC72:
 150 0126 726F7200 		.ascii "ror\0"
 151              	LC73:
 152 012a 73616866 		.ascii "sahf\0"
 152      00
 153              	LC74:
 154 012f 73616C00 		.ascii "sal\0"
 155              	LC75:
GAS LISTING asm80386_x.s 			page 4


 156 0133 73686C00 		.ascii "shl\0"
 157              	LC76:
 158 0137 73617200 		.ascii "sar\0"
 159              	LC77:
 160 013b 73626200 		.ascii "sbb\0"
 161              	LC78:
 162 013f 73687200 		.ascii "shr\0"
 163              	LC79:
 164 0143 73746300 		.ascii "stc\0"
 165              	LC80:
 166 0147 73746400 		.ascii "std\0"
 167              	LC81:
 168 014b 73746900 		.ascii "sti\0"
 169              	LC82:
 170 014f 73756200 		.ascii "sub\0"
 171              	LC83:
 172 0153 74657374 		.ascii "test\0"
 172      00
 173              	LC84:
 174 0158 78636867 		.ascii "xchg\0"
 174      00
 175              	LC85:
 176 015d 786F7200 		.ascii "xor\0"
 177              	LC86:
 178 0161 646200   		.ascii "db\0"
 179              	LC87:
 180 0164 646400   		.ascii "dd\0"
 181              	LC88:
 182 0167 647700   		.ascii "dw\0"
 183              	LC89:
 184 016a 65717500 		.ascii "equ\0"
 185              	LC90:
 186 016e 6F726700 		.ascii "org\0"
 187              	LC91:
 188 0172 73656374 		.ascii "section\0"
 188      696F6E00 
 189              	LC92:
 190 017a 62797465 		.ascii "byte\0"
 190      00
 191              	LC93:
 192 017f 776F7264 		.ascii "word\0"
 192      00
 193              	LC94:
 194 0184 64776F72 		.ascii "dword\0"
 194      6400
 195              	LC95:
 196 018a 616C00   		.ascii "al\0"
 197              	LC96:
 198 018d 636C00   		.ascii "cl\0"
 199              	LC97:
 200 0190 646C00   		.ascii "dl\0"
 201              	LC98:
 202 0193 626C00   		.ascii "bl\0"
 203              	LC99:
 204 0196 616800   		.ascii "ah\0"
 205              	LC100:
 206 0199 636800   		.ascii "ch\0"
GAS LISTING asm80386_x.s 			page 5


 207              	LC101:
 208 019c 646800   		.ascii "dh\0"
 209              	LC102:
 210 019f 626800   		.ascii "bh\0"
 211              	LC103:
 212 01a2 617800   		.ascii "ax\0"
 213              	LC104:
 214 01a5 637800   		.ascii "cx\0"
 215              	LC105:
 216 01a8 647800   		.ascii "dx\0"
 217              	LC106:
 218 01ab 627800   		.ascii "bx\0"
 219              	LC107:
 220 01ae 737000   		.ascii "sp\0"
 221              	LC108:
 222 01b1 627000   		.ascii "bp\0"
 223              	LC109:
 224 01b4 736900   		.ascii "si\0"
 225              	LC110:
 226 01b7 646900   		.ascii "di\0"
 227              	LC111:
 228 01ba 65617800 		.ascii "eax\0"
 229              	LC112:
 230 01be 65637800 		.ascii "ecx\0"
 231              	LC113:
 232 01c2 65647800 		.ascii "edx\0"
 233              	LC114:
 234 01c6 65627800 		.ascii "ebx\0"
 235              	LC115:
 236 01ca 65737000 		.ascii "esp\0"
 237              	LC116:
 238 01ce 65627000 		.ascii "ebp\0"
 239              	LC117:
 240 01d2 65736900 		.ascii "esi\0"
 241              	LC118:
 242 01d6 65646900 		.ascii "edi\0"
 243              	LC119:
 244 01da 657300   		.ascii "es\0"
 245              	LC120:
 246 01dd 637300   		.ascii "cs\0"
 247              	LC121:
 248 01e0 737300   		.ascii "ss\0"
 249              	LC122:
 250 01e3 647300   		.ascii "ds\0"
 251              		.data
 252 01e6 00000000 		.align 32
 252      00000000 
 252      00000000 
 252      00000000 
 252      00000000 
 253              	_a_sym_code:
 254 0200 00000000 		.long	LC0
 255 0204 01000000 		.long	1
 256 0208 37000000 		.long	55
 257 020c 04000000 		.long	LC1
 258 0210 02000000 		.long	2
 259 0214 D50A0000 		.long	2773
GAS LISTING asm80386_x.s 			page 6


 260 0218 08000000 		.long	LC2
 261 021c 02000000 		.long	2
 262 0220 D40A0000 		.long	2772
 263 0224 0C000000 		.long	LC3
 264 0228 01000000 		.long	1
 265 022c 3F000000 		.long	63
 266 0230 10000000 		.long	LC4
 267 0234 03000000 		.long	3
 268 0238 10148010 		.long	276829200
 269 023c 14000000 		.long	LC5
 270 0240 03000000 		.long	3
 271 0244 00048000 		.long	8389632
 272 0248 18000000 		.long	LC6
 273 024c 03000000 		.long	3
 274 0250 20248020 		.long	545268768
 275 0254 1C000000 		.long	LC7
 276 0258 04000000 		.long	4
 277 025c E89A0000 		.long	39656
 278 0260 21000000 		.long	LC8
 279 0264 02000000 		.long	2
 280 0268 66980000 		.long	39014
 281 026c 25000000 		.long	LC9
 282 0270 03000000 		.long	3
 283 0274 383C8038 		.long	947928120
 284 0278 29000000 		.long	LC10
 285 027c 02000000 		.long	2
 286 0280 66990000 		.long	39270
 287 0284 2D000000 		.long	LC11
 288 0288 01000000 		.long	1
 289 028c F8000000 		.long	248
 290 0290 31000000 		.long	LC12
 291 0294 01000000 		.long	1
 292 0298 FC000000 		.long	252
 293 029c 35000000 		.long	LC13
 294 02a0 01000000 		.long	1
 295 02a4 FA000000 		.long	250
 296 02a8 39000000 		.long	LC14
 297 02ac 01000000 		.long	1
 298 02b0 F5000000 		.long	245
 299 02b4 3D000000 		.long	LC15
 300 02b8 01000000 		.long	1
 301 02bc 27000000 		.long	39
 302 02c0 41000000 		.long	LC16
 303 02c4 01000000 		.long	1
 304 02c8 2F000000 		.long	47
 305 02cc 45000000 		.long	LC17
 306 02d0 05000000 		.long	5
 307 02d4 48FE0800 		.long	589384
 308 02d8 49000000 		.long	LC18
 309 02dc 06000000 		.long	6
 310 02e0 F6300000 		.long	12534
 311 02e4 4D000000 		.long	LC19
 312 02e8 01000000 		.long	1
 313 02ec F4000000 		.long	244
 314 02f0 51000000 		.long	LC20
 315 02f4 06000000 		.long	6
 316 02f8 F6380000 		.long	14582
GAS LISTING asm80386_x.s 			page 7


 317 02fc 56000000 		.long	LC21
 318 0300 06000000 		.long	6
 319 0304 F6280000 		.long	10486
 320 0308 5B000000 		.long	LC22
 321 030c 05000000 		.long	5
 322 0310 40FE0000 		.long	65088
 323 0314 5F000000 		.long	LC23
 324 0318 01000000 		.long	1
 325 031c CC000000 		.long	204
 326 0320 64000000 		.long	LC24
 327 0324 07000000 		.long	7
 328 0328 CD000000 		.long	205
 329 032c 68000000 		.long	LC25
 330 0330 01000000 		.long	1
 331 0334 CE000000 		.long	206
 332 0338 6D000000 		.long	LC26
 333 033c 01000000 		.long	1
 334 0340 CF000000 		.long	207
 335 0344 72000000 		.long	LC27
 336 0348 08000000 		.long	8
 337 034c 0F870000 		.long	34575
 338 0350 75000000 		.long	LC28
 339 0354 08000000 		.long	8
 340 0358 0F830000 		.long	33551
 341 035c 79000000 		.long	LC29
 342 0360 08000000 		.long	8
 343 0364 0F820000 		.long	33295
 344 0368 7C000000 		.long	LC30
 345 036c 08000000 		.long	8
 346 0370 0F860000 		.long	34319
 347 0374 80000000 		.long	LC31
 348 0378 08000000 		.long	8
 349 037c 0F820000 		.long	33295
 350 0380 83000000 		.long	LC32
 351 0384 08000000 		.long	8
 352 0388 0F840000 		.long	33807
 353 038c 86000000 		.long	LC33
 354 0390 08000000 		.long	8
 355 0394 0F8F0000 		.long	36623
 356 0398 89000000 		.long	LC34
 357 039c 08000000 		.long	8
 358 03a0 0F8D0000 		.long	36111
 359 03a4 8D000000 		.long	LC35
 360 03a8 08000000 		.long	8
 361 03ac 0F8C0000 		.long	35855
 362 03b0 90000000 		.long	LC36
 363 03b4 08000000 		.long	8
 364 03b8 0F8E0000 		.long	36367
 365 03bc 94000000 		.long	LC37
 366 03c0 08000000 		.long	8
 367 03c4 0F860000 		.long	34319
 368 03c8 98000000 		.long	LC38
 369 03cc 08000000 		.long	8
 370 03d0 0F820000 		.long	33295
 371 03d4 9D000000 		.long	LC39
 372 03d8 08000000 		.long	8
 373 03dc 0F830000 		.long	33551
GAS LISTING asm80386_x.s 			page 8


 374 03e0 A1000000 		.long	LC40
 375 03e4 08000000 		.long	8
 376 03e8 0F870000 		.long	34575
 377 03ec A6000000 		.long	LC41
 378 03f0 08000000 		.long	8
 379 03f4 0F830000 		.long	33551
 380 03f8 AA000000 		.long	LC42
 381 03fc 08000000 		.long	8
 382 0400 0F850000 		.long	34063
 383 0404 AE000000 		.long	LC43
 384 0408 08000000 		.long	8
 385 040c 0F8E0000 		.long	36367
 386 0410 B2000000 		.long	LC44
 387 0414 08000000 		.long	8
 388 0418 0F8C0000 		.long	35855
 389 041c B7000000 		.long	LC45
 390 0420 08000000 		.long	8
 391 0424 0F8D0000 		.long	36111
 392 0428 BB000000 		.long	LC46
 393 042c 08000000 		.long	8
 394 0430 0F8F0000 		.long	36623
 395 0434 C0000000 		.long	LC47
 396 0438 08000000 		.long	8
 397 043c 0F810000 		.long	33039
 398 0440 C4000000 		.long	LC48
 399 0444 08000000 		.long	8
 400 0448 0F890000 		.long	35087
 401 044c C8000000 		.long	LC49
 402 0450 08000000 		.long	8
 403 0454 0F850000 		.long	34063
 404 0458 CC000000 		.long	LC50
 405 045c 08000000 		.long	8
 406 0460 0F800000 		.long	32783
 407 0464 CF000000 		.long	LC51
 408 0468 08000000 		.long	8
 409 046c 0F8A0000 		.long	35343
 410 0470 D3000000 		.long	LC52
 411 0474 08000000 		.long	8
 412 0478 0F8B0000 		.long	35599
 413 047c D7000000 		.long	LC53
 414 0480 08000000 		.long	8
 415 0484 0F880000 		.long	34831
 416 0488 DA000000 		.long	LC54
 417 048c 08000000 		.long	8
 418 0490 0F840000 		.long	33807
 419 0494 DD000000 		.long	LC55
 420 0498 04000000 		.long	4
 421 049c E9EA0000 		.long	60137
 422 04a0 E1000000 		.long	LC56
 423 04a4 01000000 		.long	1
 424 04a8 9F000000 		.long	159
 425 04ac E6000000 		.long	LC57
 426 04b0 09000000 		.long	9
 427 04b4 00000000 		.long	0
 428 04b8 EA000000 		.long	LC58
 429 04bc 06000000 		.long	6
 430 04c0 F6200000 		.long	8438
GAS LISTING asm80386_x.s 			page 9


 431 04c4 EE000000 		.long	LC59
 432 04c8 06000000 		.long	6
 433 04cc F6180000 		.long	6390
 434 04d0 F2000000 		.long	LC60
 435 04d4 01000000 		.long	1
 436 04d8 90000000 		.long	144
 437 04dc F6000000 		.long	LC61
 438 04e0 06000000 		.long	6
 439 04e4 F6100000 		.long	4342
 440 04e8 FA000000 		.long	LC62
 441 04ec 03000000 		.long	3
 442 04f0 080C8008 		.long	142609416
 443 04f4 FD000000 		.long	LC63
 444 04f8 0A000000 		.long	10
 445 04fc 588F0000 		.long	36696
 446 0500 01010000 		.long	LC64
 447 0504 01000000 		.long	1
 448 0508 9D000000 		.long	157
 449 050c 06010000 		.long	LC65
 450 0510 0A000000 		.long	10
 451 0514 50FF3000 		.long	3211088
 452 0518 0B010000 		.long	LC66
 453 051c 01000000 		.long	1
 454 0520 9C000000 		.long	156
 455 0524 11010000 		.long	LC67
 456 0528 0B000000 		.long	11
 457 052c D0100000 		.long	4304
 458 0530 15010000 		.long	LC68
 459 0534 0B000000 		.long	11
 460 0538 D0180000 		.long	6352
 461 053c 19010000 		.long	LC69
 462 0540 0C000000 		.long	12
 463 0544 C3C20000 		.long	49859
 464 0548 1D010000 		.long	LC70
 465 054c 0C000000 		.long	12
 466 0550 CBCA0000 		.long	51915
 467 0554 22010000 		.long	LC71
 468 0558 0B000000 		.long	11
 469 055c D0000000 		.long	208
 470 0560 26010000 		.long	LC72
 471 0564 0B000000 		.long	11
 472 0568 D0080000 		.long	2256
 473 056c 2A010000 		.long	LC73
 474 0570 01000000 		.long	1
 475 0574 9E000000 		.long	158
 476 0578 2F010000 		.long	LC74
 477 057c 0B000000 		.long	11
 478 0580 D0200000 		.long	8400
 479 0584 33010000 		.long	LC75
 480 0588 0B000000 		.long	11
 481 058c D0200000 		.long	8400
 482 0590 37010000 		.long	LC76
 483 0594 0B000000 		.long	11
 484 0598 D0380000 		.long	14544
 485 059c 3B010000 		.long	LC77
 486 05a0 03000000 		.long	3
 487 05a4 181C8018 		.long	411048984
GAS LISTING asm80386_x.s 			page 10


 488 05a8 3F010000 		.long	LC78
 489 05ac 0B000000 		.long	11
 490 05b0 D0280000 		.long	10448
 491 05b4 43010000 		.long	LC79
 492 05b8 01000000 		.long	1
 493 05bc F9000000 		.long	249
 494 05c0 47010000 		.long	LC80
 495 05c4 01000000 		.long	1
 496 05c8 FD000000 		.long	253
 497 05cc 4B010000 		.long	LC81
 498 05d0 01000000 		.long	1
 499 05d4 FB000000 		.long	251
 500 05d8 4F010000 		.long	LC82
 501 05dc 03000000 		.long	3
 502 05e0 282C8028 		.long	679488552
 503 05e4 53010000 		.long	LC83
 504 05e8 0D000000 		.long	13
 505 05ec 84A8F600 		.long	16164996
 506 05f0 58010000 		.long	LC84
 507 05f4 0E000000 		.long	14
 508 05f8 90860000 		.long	34448
 509 05fc 5D010000 		.long	LC85
 510 0600 03000000 		.long	3
 511 0604 30348030 		.long	813708336
 512 0608 61010000 		.long	LC86
 513 060c EC030000 		.long	1004
 514 0610 00000000 		.long	0
 515 0614 64010000 		.long	LC87
 516 0618 EE030000 		.long	1006
 517 061c 00000000 		.long	0
 518 0620 67010000 		.long	LC88
 519 0624 ED030000 		.long	1005
 520 0628 00000000 		.long	0
 521 062c 6A010000 		.long	LC89
 522 0630 EB030000 		.long	1003
 523 0634 00000000 		.long	0
 524 0638 6E010000 		.long	LC90
 525 063c EA030000 		.long	1002
 526 0640 00000000 		.long	0
 527 0644 72010000 		.long	LC91
 528 0648 E9030000 		.long	1001
 529 064c 00000000 		.long	0
 530 0650 7A010000 		.long	LC92
 531 0654 EF030000 		.long	1007
 532 0658 01000000 		.long	1
 533 065c 7F010000 		.long	LC93
 534 0660 EF030000 		.long	1007
 535 0664 02000000 		.long	2
 536 0668 84010000 		.long	LC94
 537 066c EF030000 		.long	1007
 538 0670 03000000 		.long	3
 539 0674 8A010000 		.long	LC95
 540 0678 C8000000 		.long	200
 541 067c 00010000 		.long	256
 542 0680 8D010000 		.long	LC96
 543 0684 C8000000 		.long	200
 544 0688 01010000 		.long	257
GAS LISTING asm80386_x.s 			page 11


 545 068c 90010000 		.long	LC97
 546 0690 C8000000 		.long	200
 547 0694 02010000 		.long	258
 548 0698 93010000 		.long	LC98
 549 069c C8000000 		.long	200
 550 06a0 03010000 		.long	259
 551 06a4 96010000 		.long	LC99
 552 06a8 C8000000 		.long	200
 553 06ac 04010000 		.long	260
 554 06b0 99010000 		.long	LC100
 555 06b4 C8000000 		.long	200
 556 06b8 05010000 		.long	261
 557 06bc 9C010000 		.long	LC101
 558 06c0 C8000000 		.long	200
 559 06c4 06010000 		.long	262
 560 06c8 9F010000 		.long	LC102
 561 06cc C8000000 		.long	200
 562 06d0 07010000 		.long	263
 563 06d4 A2010000 		.long	LC103
 564 06d8 C8000000 		.long	200
 565 06dc 00020000 		.long	512
 566 06e0 A5010000 		.long	LC104
 567 06e4 C8000000 		.long	200
 568 06e8 01020000 		.long	513
 569 06ec A8010000 		.long	LC105
 570 06f0 C8000000 		.long	200
 571 06f4 02020000 		.long	514
 572 06f8 AB010000 		.long	LC106
 573 06fc C8000000 		.long	200
 574 0700 03020000 		.long	515
 575 0704 AE010000 		.long	LC107
 576 0708 C8000000 		.long	200
 577 070c 04020000 		.long	516
 578 0710 B1010000 		.long	LC108
 579 0714 C8000000 		.long	200
 580 0718 05020000 		.long	517
 581 071c B4010000 		.long	LC109
 582 0720 C8000000 		.long	200
 583 0724 06020000 		.long	518
 584 0728 B7010000 		.long	LC110
 585 072c C8000000 		.long	200
 586 0730 07020000 		.long	519
 587 0734 BA010000 		.long	LC111
 588 0738 C8000000 		.long	200
 589 073c 00030000 		.long	768
 590 0740 BE010000 		.long	LC112
 591 0744 C8000000 		.long	200
 592 0748 01030000 		.long	769
 593 074c C2010000 		.long	LC113
 594 0750 C8000000 		.long	200
 595 0754 02030000 		.long	770
 596 0758 C6010000 		.long	LC114
 597 075c C8000000 		.long	200
 598 0760 03030000 		.long	771
 599 0764 CA010000 		.long	LC115
 600 0768 C8000000 		.long	200
 601 076c 04030000 		.long	772
GAS LISTING asm80386_x.s 			page 12


 602 0770 CE010000 		.long	LC116
 603 0774 C8000000 		.long	200
 604 0778 05030000 		.long	773
 605 077c D2010000 		.long	LC117
 606 0780 C8000000 		.long	200
 607 0784 06030000 		.long	774
 608 0788 D6010000 		.long	LC118
 609 078c C8000000 		.long	200
 610 0790 07030000 		.long	775
 611 0794 DA010000 		.long	LC119
 612 0798 C8000000 		.long	200
 613 079c 00040000 		.long	1024
 614 07a0 DD010000 		.long	LC120
 615 07a4 C8000000 		.long	200
 616 07a8 01040000 		.long	1025
 617 07ac E0010000 		.long	LC121
 618 07b0 C8000000 		.long	200
 619 07b4 02040000 		.long	1026
 620 07b8 E3010000 		.long	LC122
 621 07bc C8000000 		.long	200
 622 07c0 03040000 		.long	1027
 623 07c4 00000000 		.long	0
 624 07c8 00000000 		.long	0
 625 07cc 00000000 		.space 4
 626              		.globl	_a_symtbl
 627              		.bss
 628              		.align 32
 629              	_a_symtbl:
 630 0000 00000000 		.space 720000
 630      00000000 
 630      00000000 
 630      00000000 
 630      00000000 
 631              		.globl	_a_symtbl_ptr
 632              		.align 4
 633              	_a_symtbl_ptr:
 634 afc80 00000000 		.space 4
 635              		.globl	_a_section
 636 afc84 00000000 		.align 32
 636      00000000 
 636      00000000 
 636      00000000 
 636      00000000 
 637              	_a_section:
 638 afca0 00000000 		.space 6800
 638      00000000 
 638      00000000 
 638      00000000 
 638      00000000 
 639              		.globl	_a_section_ptr
 640              		.align 4
 641              	_a_section_ptr:
 642 b1730 00000000 		.space 4
 643              		.globl	_a_section_numb
 644              		.align 4
 645              	_a_section_numb:
 646 b1734 00000000 		.space 4
GAS LISTING asm80386_x.s 			page 13


 647              		.globl	_a_error
 648              		.data
 649              	LC123:
 650 07d0 4E6F2065 		.ascii "No error\0"
 650      72726F72 
 650      00
 651              	LC124:
 652 07d9 455F4E4F 		.ascii "E_NOTSYMBOL\0"
 652      5453594D 
 652      424F4C00 
 653              	LC125:
 654 07e5 455F4C49 		.ascii "E_LINEEND\0"
 654      4E45454E 
 654      4400
 655              	LC126:
 656 07ef 455F4D55 		.ascii "E_MULTIPLE_DEFINITION\0"
 656      4C544950 
 656      4C455F44 
 656      4546494E 
 656      4954494F 
 657              	LC127:
 658 0805 455F554E 		.ascii "E_UNDEFINED_SYMBOL\0"
 658      44454649 
 658      4E45445F 
 658      53594D42 
 658      4F4C00
 659              	LC128:
 660 0818 455F5359 		.ascii "E_SYNTAX_ERROR\0"
 660      4E544158 
 660      5F455252 
 660      4F5200
 661              	LC129:
 662 0827 455F494E 		.ascii "E_INTERNAL_ERROR\0"
 662      5445524E 
 662      414C5F45 
 662      52524F52 
 662      00
 663              		.data
 664              		.align 4
 665              	_a_error:
 666 0838 D0070000 		.long	LC123
 667 083c D9070000 		.long	LC124
 668 0840 E5070000 		.long	LC125
 669 0844 EF070000 		.long	LC126
 670 0848 05080000 		.long	LC127
 671 084c 18080000 		.long	LC128
 672 0850 27080000 		.long	LC129
 673              		.globl	_a_srcfile
 674              		.bss
 675              		.align 4
 676              	_a_srcfile:
 677 b1738 00000000 		.space 4
 678              		.globl	_a_srcfile_len
 679              		.align 4
 680              	_a_srcfile_len:
 681 b173c 00000000 		.space 4
 682              		.globl	_a_srcfile_ptr
GAS LISTING asm80386_x.s 			page 14


 683              		.align 4
 684              	_a_srcfile_ptr:
 685 b1740 00000000 		.space 4
 686              		.globl	_a_objfile
 687              		.align 4
 688              	_a_objfile:
 689 b1744 00000000 		.space 4
 690              		.globl	_a_objfile_ptr
 691              		.align 4
 692              	_a_objfile_ptr:
 693 b1748 00000000 		.space 4
 694              		.globl	_a_binfile
 695              		.align 4
 696              	_a_binfile:
 697 b174c 00000000 		.space 4
 698              		.globl	_a_addr_top
 699              		.align 4
 700              	_a_addr_top:
 701 b1750 00000000 		.space 4
 702              		.globl	_a_addr_end
 703              		.align 4
 704              	_a_addr_end:
 705 b1754 00000000 		.space 4
 706              		.globl	_a_bindata
 707              		.align 4
 708              	_a_bindata:
 709 b1758 00000000 		.space 4
 710              		.globl	_a_inst
 711              		.align 4
 712              	_a_inst:
 713 b175c 00000000 		.space 12
 713      00000000 
 713      00000000 
 714              		.globl	_a_inst_ptr
 715              		.align 4
 716              	_a_inst_ptr:
 717 b1768 00000000 		.space 4
 718              		.globl	_a_linebuf
 719 b176c 00000000 		.align 32
 719      00000000 
 719      00000000 
 719      00000000 
 719      00000000 
 720              	_a_linebuf:
 721 b1780 00000000 		.space 1024
 721      00000000 
 721      00000000 
 721      00000000 
 721      00000000 
 722              		.globl	_a_linebufp
 723              		.align 4
 724              	_a_linebufp:
 725 b1b80 00000000 		.space 4
 726              		.globl	_a_symbuf
 727 b1b84 00000000 		.align 32
 727      00000000 
 727      00000000 
GAS LISTING asm80386_x.s 			page 15


 727      00000000 
 727      00000000 
 728              	_a_symbuf:
 729 b1ba0 00000000 		.space 64
 729      00000000 
 729      00000000 
 729      00000000 
 729      00000000 
 730              		.globl	_a_addr
 731              		.align 4
 732              	_a_addr:
 733 b1be0 00000000 		.space 4
 734              		.globl	_a_linenumb
 735              		.align 4
 736              	_a_linenumb:
 737 b1be4 00000000 		.space 4
 738              		.globl	_a_pass
 739              		.align 4
 740              	_a_pass:
 741 b1be8 00000000 		.space 4
 742              		.globl	_a_chg_flag
 743              		.align 4
 744              	_a_chg_flag:
 745 b1bec 00000000 		.space 4
 746 b1bf0 00000000 		.text
 746      00000000 
 746      00000000 
 746      00000000 
 747              		.globl	_a_spskip
 748              		.def	_a_spskip;	.scl	2;	.type	32;	.endef
 749              	_a_spskip:
 750              	LFB0:
 751              		.cfi_startproc
 752 0000 55       		pushl	%ebp
 753              		.cfi_def_cfa_offset 8
 754              		.cfi_offset 5, -8
 755 0001 89E5     		movl	%esp, %ebp
 756              		.cfi_def_cfa_register 5
 757 0003 EB0D     		jmp	L2
 758              	L3:
 759 0005 A1801B0B 		movl	_a_linebufp, %eax
 759      00
 760 000a 83C001   		addl	$1, %eax
 761 000d A3801B0B 		movl	%eax, _a_linebufp
 761      00
 762              	L2:
 763 0012 A1801B0B 		movl	_a_linebufp, %eax
 763      00
 764 0017 0FB600   		movzbl	(%eax), %eax
 765 001a 3C20     		cmpb	$32, %al
 766 001c 74E7     		je	L3
 767 001e A1801B0B 		movl	_a_linebufp, %eax
 767      00
 768 0023 0FB600   		movzbl	(%eax), %eax
 769 0026 3C09     		cmpb	$9, %al
 770 0028 74DB     		je	L3
 771 002a 90       		nop
GAS LISTING asm80386_x.s 			page 16


 772 002b 90       		nop
 773 002c 5D       		popl	%ebp
 774              		.cfi_restore 5
 775              		.cfi_def_cfa 4, 4
 776 002d C3       		ret
 777              		.cfi_endproc
 778              	LFE0:
 779              		.globl	_a_get1line
 780              		.def	_a_get1line;	.scl	2;	.type	32;	.endef
 781              	_a_get1line:
 782              	LFB1:
 783              		.cfi_startproc
 784 002e 55       		pushl	%ebp
 785              		.cfi_def_cfa_offset 8
 786              		.cfi_offset 5, -8
 787 002f 89E5     		movl	%esp, %ebp
 788              		.cfi_def_cfa_register 5
 789 0031 83EC10   		subl	$16, %esp
 790 0034 C705801B 		movl	$_a_linebuf, _a_linebufp
 790      0B008017 
 790      0B00
 791 003e C745FC00 		movl	$0, -4(%ebp)
 791      000000
 792 0045 E9AD0000 		jmp	L5
 792      00
 793              	L11:
 794 004a 8B153817 		movl	_a_srcfile, %edx
 794      0B00
 795 0050 A140170B 		movl	_a_srcfile_ptr, %eax
 795      00
 796 0055 01D0     		addl	%edx, %eax
 797 0057 0FB600   		movzbl	(%eax), %eax
 798 005a 0FBEC0   		movsbl	%al, %eax
 799 005d 8945F8   		movl	%eax, -8(%ebp)
 800 0060 837DF800 		cmpl	$0, -8(%ebp)
 801 0064 7510     		jne	L6
 802 0066 8B45FC   		movl	-4(%ebp), %eax
 803 0069 0580170B 		addl	$_a_linebuf, %eax
 803      00
 804 006e C60000   		movb	$0, (%eax)
 805 0071 E99D0000 		jmp	L4
 805      00
 806              	L6:
 807 0076 837DF80A 		cmpl	$10, -8(%ebp)
 808 007a 751A     		jne	L8
 809 007c 8B45FC   		movl	-4(%ebp), %eax
 810 007f 0580170B 		addl	$_a_linebuf, %eax
 810      00
 811 0084 C60000   		movb	$0, (%eax)
 812 0087 A140170B 		movl	_a_srcfile_ptr, %eax
 812      00
 813 008c 83C001   		addl	$1, %eax
 814 008f A340170B 		movl	%eax, _a_srcfile_ptr
 814      00
 815 0094 EB7D     		jmp	L4
 816              	L8:
 817 0096 837DF80D 		cmpl	$13, -8(%ebp)
GAS LISTING asm80386_x.s 			page 17


 818 009a 753B     		jne	L9
 819 009c 8B45FC   		movl	-4(%ebp), %eax
 820 009f 0580170B 		addl	$_a_linebuf, %eax
 820      00
 821 00a4 C60000   		movb	$0, (%eax)
 822 00a7 A140170B 		movl	_a_srcfile_ptr, %eax
 822      00
 823 00ac 83C001   		addl	$1, %eax
 824 00af A340170B 		movl	%eax, _a_srcfile_ptr
 824      00
 825 00b4 8B153817 		movl	_a_srcfile, %edx
 825      0B00
 826 00ba A140170B 		movl	_a_srcfile_ptr, %eax
 826      00
 827 00bf 01D0     		addl	%edx, %eax
 828 00c1 0FB600   		movzbl	(%eax), %eax
 829 00c4 3C0A     		cmpb	$10, %al
 830 00c6 754A     		jne	L12
 831 00c8 A140170B 		movl	_a_srcfile_ptr, %eax
 831      00
 832 00cd 83C001   		addl	$1, %eax
 833 00d0 A340170B 		movl	%eax, _a_srcfile_ptr
 833      00
 834 00d5 EB3B     		jmp	L12
 835              	L9:
 836 00d7 8B45F8   		movl	-8(%ebp), %eax
 837 00da 89C2     		movl	%eax, %edx
 838 00dc 8B45FC   		movl	-4(%ebp), %eax
 839 00df 0580170B 		addl	$_a_linebuf, %eax
 839      00
 840 00e4 8810     		movb	%dl, (%eax)
 841 00e6 A140170B 		movl	_a_srcfile_ptr, %eax
 841      00
 842 00eb 83C001   		addl	$1, %eax
 843 00ee A340170B 		movl	%eax, _a_srcfile_ptr
 843      00
 844 00f3 8345FC01 		addl	$1, -4(%ebp)
 845              	L5:
 846 00f7 8B45FC   		movl	-4(%ebp), %eax
 847 00fa 3DFE0300 		cmpl	$1022, %eax
 847      00
 848 00ff 0F8645FF 		jbe	L11
 848      FFFF
 849 0105 8B45FC   		movl	-4(%ebp), %eax
 850 0108 0580170B 		addl	$_a_linebuf, %eax
 850      00
 851 010d C60000   		movb	$0, (%eax)
 852 0110 EB01     		jmp	L4
 853              	L12:
 854 0112 90       		nop
 855              	L4:
 856 0113 C9       		leave
 857              		.cfi_restore 5
 858              		.cfi_def_cfa 4, 4
 859 0114 C3       		ret
 860              		.cfi_endproc
 861              	LFE1:
GAS LISTING asm80386_x.s 			page 18


 862              		.data
 863              	LC130:
 864 0854 4C696E65 		.ascii "Line %d *** %s\12\0"
 864      20256420 
 864      2A2A2A20 
 864      25730A00 
 865              	LC131:
 866 0864 25643A09 		.ascii "%d:\11%s\12\0"
 866      25730A00 
 867              		.text
 868              		.globl	_a_error_message
 869              		.def	_a_error_message;	.scl	2;	.type	32;	.endef
 870              	_a_error_message:
 871              	LFB2:
 872              		.cfi_startproc
 873 0115 55       		pushl	%ebp
 874              		.cfi_def_cfa_offset 8
 875              		.cfi_offset 5, -8
 876 0116 89E5     		movl	%esp, %ebp
 877              		.cfi_def_cfa_register 5
 878 0118 83EC18   		subl	$24, %esp
 879 011b 8B4508   		movl	8(%ebp), %eax
 880 011e 8B148538 		movl	_a_error(,%eax,4), %edx
 880      080000
 881 0125 A1000000 		movl	_cmd_sht, %eax
 881      00
 882 012a 8954240C 		movl	%edx, 12(%esp)
 883 012e 8B550C   		movl	12(%ebp), %edx
 884 0131 89542408 		movl	%edx, 8(%esp)
 885 0135 C7442404 		movl	$LC130, 4(%esp)
 885      54080000 
 886 013d 890424   		movl	%eax, (%esp)
 887 0140 E8000000 		call	_ut_printf
 887      00
 888 0145 8B15E41B 		movl	_a_linenumb, %edx
 888      0B00
 889 014b A1000000 		movl	_cmd_sht, %eax
 889      00
 890 0150 C744240C 		movl	$_a_linebuf, 12(%esp)
 890      80170B00 
 891 0158 89542408 		movl	%edx, 8(%esp)
 892 015c C7442404 		movl	$LC131, 4(%esp)
 892      64080000 
 893 0164 890424   		movl	%eax, (%esp)
 894 0167 E8000000 		call	_ut_printf
 894      00
 895 016c 90       		nop
 896 016d C9       		leave
 897              		.cfi_restore 5
 898              		.cfi_def_cfa 4, 4
 899 016e C3       		ret
 900              		.cfi_endproc
 901              	LFE2:
 902              		.globl	_is_symtop
 903              		.def	_is_symtop;	.scl	2;	.type	32;	.endef
 904              	_is_symtop:
 905              	LFB3:
GAS LISTING asm80386_x.s 			page 19


 906              		.cfi_startproc
 907 016f 55       		pushl	%ebp
 908              		.cfi_def_cfa_offset 8
 909              		.cfi_offset 5, -8
 910 0170 89E5     		movl	%esp, %ebp
 911              		.cfi_def_cfa_register 5
 912 0172 A1801B0B 		movl	_a_linebufp, %eax
 912      00
 913 0177 0FB600   		movzbl	(%eax), %eax
 914 017a 3C2E     		cmpb	$46, %al
 915 017c 7448     		je	L15
 916 017e A1801B0B 		movl	_a_linebufp, %eax
 916      00
 917 0183 0FB600   		movzbl	(%eax), %eax
 918 0186 3C5F     		cmpb	$95, %al
 919 0188 743C     		je	L15
 920 018a A1801B0B 		movl	_a_linebufp, %eax
 920      00
 921 018f 0FB600   		movzbl	(%eax), %eax
 922 0192 3C40     		cmpb	$64, %al
 923 0194 7430     		je	L15
 924 0196 A1801B0B 		movl	_a_linebufp, %eax
 924      00
 925 019b 0FB600   		movzbl	(%eax), %eax
 926 019e 3C40     		cmpb	$64, %al
 927 01a0 7E0C     		jle	L16
 928 01a2 A1801B0B 		movl	_a_linebufp, %eax
 928      00
 929 01a7 0FB600   		movzbl	(%eax), %eax
 930 01aa 3C5A     		cmpb	$90, %al
 931 01ac 7E18     		jle	L15
 932              	L16:
 933 01ae A1801B0B 		movl	_a_linebufp, %eax
 933      00
 934 01b3 0FB600   		movzbl	(%eax), %eax
 935 01b6 3C60     		cmpb	$96, %al
 936 01b8 7E13     		jle	L17
 937 01ba A1801B0B 		movl	_a_linebufp, %eax
 937      00
 938 01bf 0FB600   		movzbl	(%eax), %eax
 939 01c2 3C7A     		cmpb	$122, %al
 940 01c4 7F07     		jg	L17
 941              	L15:
 942 01c6 B8010000 		movl	$1, %eax
 942      00
 943 01cb EB05     		jmp	L18
 944              	L17:
 945 01cd B8000000 		movl	$0, %eax
 945      00
 946              	L18:
 947 01d2 5D       		popl	%ebp
 948              		.cfi_restore 5
 949              		.cfi_def_cfa 4, 4
 950 01d3 C3       		ret
 951              		.cfi_endproc
 952              	LFE3:
 953              		.globl	_is_symbody
GAS LISTING asm80386_x.s 			page 20


 954              		.def	_is_symbody;	.scl	2;	.type	32;	.endef
 955              	_is_symbody:
 956              	LFB4:
 957              		.cfi_startproc
 958 01d4 55       		pushl	%ebp
 959              		.cfi_def_cfa_offset 8
 960              		.cfi_offset 5, -8
 961 01d5 89E5     		movl	%esp, %ebp
 962              		.cfi_def_cfa_register 5
 963 01d7 E893FFFF 		call	_is_symtop
 963      FF
 964 01dc 85C0     		testl	%eax, %eax
 965 01de 7407     		je	L20
 966 01e0 B8010000 		movl	$1, %eax
 966      00
 967 01e5 EB24     		jmp	L21
 968              	L20:
 969 01e7 A1801B0B 		movl	_a_linebufp, %eax
 969      00
 970 01ec 0FB600   		movzbl	(%eax), %eax
 971 01ef 3C2F     		cmpb	$47, %al
 972 01f1 7E13     		jle	L22
 973 01f3 A1801B0B 		movl	_a_linebufp, %eax
 973      00
 974 01f8 0FB600   		movzbl	(%eax), %eax
 975 01fb 3C39     		cmpb	$57, %al
 976 01fd 7F07     		jg	L22
 977 01ff B8010000 		movl	$1, %eax
 977      00
 978 0204 EB05     		jmp	L21
 979              	L22:
 980 0206 B8000000 		movl	$0, %eax
 980      00
 981              	L21:
 982 020b 5D       		popl	%ebp
 983              		.cfi_restore 5
 984              		.cfi_def_cfa 4, 4
 985 020c C3       		ret
 986              		.cfi_endproc
 987              	LFE4:
 988              		.globl	_a_getsym
 989              		.def	_a_getsym;	.scl	2;	.type	32;	.endef
 990              	_a_getsym:
 991              	LFB5:
 992              		.cfi_startproc
 993 020d 55       		pushl	%ebp
 994              		.cfi_def_cfa_offset 8
 995              		.cfi_offset 5, -8
 996 020e 89E5     		movl	%esp, %ebp
 997              		.cfi_def_cfa_register 5
 998 0210 83EC28   		subl	$40, %esp
 999 0213 E8E8FDFF 		call	_a_spskip
 999      FF
 1000 0218 E852FFFF 		call	_is_symtop
 1000      FF
 1001 021d 85C0     		testl	%eax, %eax
 1002 021f 751B     		jne	L24
GAS LISTING asm80386_x.s 			page 21


 1003 0221 C7442404 		movl	$360, 4(%esp)
 1003      68010000 
 1004 0229 C7042401 		movl	$1, (%esp)
 1004      000000
 1005 0230 E8E0FEFF 		call	_a_error_message
 1005      FF
 1006 0235 B8FFFFFF 		movl	$-1, %eax
 1006      FF
 1007 023a EB5C     		jmp	L25
 1008              	L24:
 1009 023c C745F400 		movl	$0, -12(%ebp)
 1009      000000
 1010 0243 EB3D     		jmp	L26
 1011              	L29:
 1012 0245 E88AFFFF 		call	_is_symbody
 1012      FF
 1013 024a 85C0     		testl	%eax, %eax
 1014 024c 741E     		je	L27
 1015 024e A1801B0B 		movl	_a_linebufp, %eax
 1015      00
 1016 0253 8D5001   		leal	1(%eax), %edx
 1017 0256 8915801B 		movl	%edx, _a_linebufp
 1017      0B00
 1018 025c 0FB600   		movzbl	(%eax), %eax
 1019 025f 8B55F4   		movl	-12(%ebp), %edx
 1020 0262 81C2A01B 		addl	$_a_symbuf, %edx
 1020      0B00
 1021 0268 8802     		movb	%al, (%edx)
 1022 026a EB12     		jmp	L30
 1023              	L27:
 1024 026c 8B45F4   		movl	-12(%ebp), %eax
 1025 026f 05A01B0B 		addl	$_a_symbuf, %eax
 1025      00
 1026 0274 C60000   		movb	$0, (%eax)
 1027 0277 B8000000 		movl	$0, %eax
 1027      00
 1028 027c EB1A     		jmp	L25
 1029              	L30:
 1030 027e 8345F401 		addl	$1, -12(%ebp)
 1031              	L26:
 1032 0282 837DF43E 		cmpl	$62, -12(%ebp)
 1033 0286 7EBD     		jle	L29
 1034 0288 8B45F4   		movl	-12(%ebp), %eax
 1035 028b 05A01B0B 		addl	$_a_symbuf, %eax
 1035      00
 1036 0290 C60000   		movb	$0, (%eax)
 1037 0293 B8000000 		movl	$0, %eax
 1037      00
 1038              	L25:
 1039 0298 C9       		leave
 1040              		.cfi_restore 5
 1041              		.cfi_def_cfa 4, 4
 1042 0299 C3       		ret
 1043              		.cfi_endproc
 1044              	LFE5:
 1045              		.globl	_a_symsrch
 1046              		.def	_a_symsrch;	.scl	2;	.type	32;	.endef
GAS LISTING asm80386_x.s 			page 22


 1047              	_a_symsrch:
 1048              	LFB6:
 1049              		.cfi_startproc
 1050 029a 55       		pushl	%ebp
 1051              		.cfi_def_cfa_offset 8
 1052              		.cfi_offset 5, -8
 1053 029b 89E5     		movl	%esp, %ebp
 1054              		.cfi_def_cfa_register 5
 1055 029d 83EC28   		subl	$40, %esp
 1056 02a0 C745F400 		movl	$0, -12(%ebp)
 1056      000000
 1057 02a7 EB2F     		jmp	L32
 1058              	L35:
 1059 02a9 8B55F4   		movl	-12(%ebp), %edx
 1060 02ac 89D0     		movl	%edx, %eax
 1061 02ae C1E003   		sall	$3, %eax
 1062 02b1 01D0     		addl	%edx, %eax
 1063 02b3 C1E003   		sall	$3, %eax
 1064 02b6 05000000 		addl	$_a_symtbl, %eax
 1064      00
 1065 02bb 89442404 		movl	%eax, 4(%esp)
 1066 02bf C70424A0 		movl	$_a_symbuf, (%esp)
 1066      1B0B00
 1067 02c6 E8000000 		call	_strcmp
 1067      00
 1068 02cb 85C0     		testl	%eax, %eax
 1069 02cd 7505     		jne	L33
 1070 02cf 8B45F4   		movl	-12(%ebp), %eax
 1071 02d2 EB13     		jmp	L34
 1072              	L33:
 1073 02d4 8345F401 		addl	$1, -12(%ebp)
 1074              	L32:
 1075 02d8 A180FC0A 		movl	_a_symtbl_ptr, %eax
 1075      00
 1076 02dd 3945F4   		cmpl	%eax, -12(%ebp)
 1077 02e0 7CC7     		jl	L35
 1078 02e2 B8FFFFFF 		movl	$-1, %eax
 1078      FF
 1079              	L34:
 1080 02e7 C9       		leave
 1081              		.cfi_restore 5
 1082              		.cfi_def_cfa 4, 4
 1083 02e8 C3       		ret
 1084              		.cfi_endproc
 1085              	LFE6:
 1086              		.data
 1087              	LC132:
 1088 086c 25303878 		.ascii "%08x  \0"
 1088      202000
 1089              	LC133:
 1090 0873 25303278 		.ascii "%02x\0"
 1090      00
 1091              	LC134:
 1092 0878 202000   		.ascii "  \0"
 1093              	LC135:
 1094 087b 2535643A 		.ascii "%5d:\11%s\12\0"
 1094      0925730A 
GAS LISTING asm80386_x.s 			page 23


 1094      00
 1095              		.text
 1096              		.globl	_a_listout
 1097              		.def	_a_listout;	.scl	2;	.type	32;	.endef
 1098              	_a_listout:
 1099              	LFB7:
 1100              		.cfi_startproc
 1101 02e9 55       		pushl	%ebp
 1102              		.cfi_def_cfa_offset 8
 1103              		.cfi_offset 5, -8
 1104 02ea 89E5     		movl	%esp, %ebp
 1105              		.cfi_def_cfa_register 5
 1106 02ec 83EC28   		subl	$40, %esp
 1107 02ef A1E81B0B 		movl	_a_pass, %eax
 1107      00
 1108 02f4 83F803   		cmpl	$3, %eax
 1109 02f7 0F85A400 		jne	L43
 1109      0000
 1110 02fd A1E01B0B 		movl	_a_addr, %eax
 1110      00
 1111 0302 8B10     		movl	(%eax), %edx
 1112 0304 A1000000 		movl	_cmd_sht, %eax
 1112      00
 1113 0309 89542408 		movl	%edx, 8(%esp)
 1114 030d C7442404 		movl	$LC132, 4(%esp)
 1114      6C080000 
 1115 0315 890424   		movl	%eax, (%esp)
 1116 0318 E8000000 		call	_ut_printf
 1116      00
 1117 031d C745F400 		movl	$0, -12(%ebp)
 1117      000000
 1118 0324 EB4C     		jmp	L39
 1119              	L42:
 1120 0326 A168170B 		movl	_a_inst_ptr, %eax
 1120      00
 1121 032b 3945F4   		cmpl	%eax, -12(%ebp)
 1122 032e 7D29     		jge	L40
 1123 0330 8B45F4   		movl	-12(%ebp), %eax
 1124 0333 055C170B 		addl	$_a_inst, %eax
 1124      00
 1125 0338 0FB600   		movzbl	(%eax), %eax
 1126 033b 0FB6D0   		movzbl	%al, %edx
 1127 033e A1000000 		movl	_cmd_sht, %eax
 1127      00
 1128 0343 89542408 		movl	%edx, 8(%esp)
 1129 0347 C7442404 		movl	$LC133, 4(%esp)
 1129      73080000 
 1130 034f 890424   		movl	%eax, (%esp)
 1131 0352 E8000000 		call	_ut_printf
 1131      00
 1132 0357 EB15     		jmp	L41
 1133              	L40:
 1134 0359 A1000000 		movl	_cmd_sht, %eax
 1134      00
 1135 035e C7442404 		movl	$LC134, 4(%esp)
 1135      78080000 
 1136 0366 890424   		movl	%eax, (%esp)
GAS LISTING asm80386_x.s 			page 24


 1137 0369 E8000000 		call	_ut_printf
 1137      00
 1138              	L41:
 1139 036e 8345F401 		addl	$1, -12(%ebp)
 1140              	L39:
 1141 0372 837DF40B 		cmpl	$11, -12(%ebp)
 1142 0376 7EAE     		jle	L42
 1143 0378 8B15E41B 		movl	_a_linenumb, %edx
 1143      0B00
 1144 037e A1000000 		movl	_cmd_sht, %eax
 1144      00
 1145 0383 C744240C 		movl	$_a_linebuf, 12(%esp)
 1145      80170B00 
 1146 038b 89542408 		movl	%edx, 8(%esp)
 1147 038f C7442404 		movl	$LC135, 4(%esp)
 1147      7B080000 
 1148 0397 890424   		movl	%eax, (%esp)
 1149 039a E8000000 		call	_ut_printf
 1149      00
 1150 039f EB01     		jmp	L36
 1151              	L43:
 1152 03a1 90       		nop
 1153              	L36:
 1154 03a2 C9       		leave
 1155              		.cfi_restore 5
 1156              		.cfi_def_cfa 4, 4
 1157 03a3 C3       		ret
 1158              		.cfi_endproc
 1159              	LFE7:
 1160              		.data
 1161              	LC136:
 1162 0884 0A00     		.ascii "\12\0"
 1163              		.text
 1164              		.globl	_a_listout_nosrc
 1165              		.def	_a_listout_nosrc;	.scl	2;	.type	32;	.endef
 1166              	_a_listout_nosrc:
 1167              	LFB8:
 1168              		.cfi_startproc
 1169 03a4 55       		pushl	%ebp
 1170              		.cfi_def_cfa_offset 8
 1171              		.cfi_offset 5, -8
 1172 03a5 89E5     		movl	%esp, %ebp
 1173              		.cfi_def_cfa_register 5
 1174 03a7 83EC28   		subl	$40, %esp
 1175 03aa A1E81B0B 		movl	_a_pass, %eax
 1175      00
 1176 03af 83F803   		cmpl	$3, %eax
 1177 03b2 0F859200 		jne	L51
 1177      0000
 1178 03b8 A1E01B0B 		movl	_a_addr, %eax
 1178      00
 1179 03bd 8B10     		movl	(%eax), %edx
 1180 03bf A1000000 		movl	_cmd_sht, %eax
 1180      00
 1181 03c4 89542408 		movl	%edx, 8(%esp)
 1182 03c8 C7442404 		movl	$LC132, 4(%esp)
 1182      6C080000 
GAS LISTING asm80386_x.s 			page 25


 1183 03d0 890424   		movl	%eax, (%esp)
 1184 03d3 E8000000 		call	_ut_printf
 1184      00
 1185 03d8 C745F400 		movl	$0, -12(%ebp)
 1185      000000
 1186 03df EB4C     		jmp	L47
 1187              	L50:
 1188 03e1 A168170B 		movl	_a_inst_ptr, %eax
 1188      00
 1189 03e6 3945F4   		cmpl	%eax, -12(%ebp)
 1190 03e9 7D29     		jge	L48
 1191 03eb 8B45F4   		movl	-12(%ebp), %eax
 1192 03ee 055C170B 		addl	$_a_inst, %eax
 1192      00
 1193 03f3 0FB600   		movzbl	(%eax), %eax
 1194 03f6 0FB6D0   		movzbl	%al, %edx
 1195 03f9 A1000000 		movl	_cmd_sht, %eax
 1195      00
 1196 03fe 89542408 		movl	%edx, 8(%esp)
 1197 0402 C7442404 		movl	$LC133, 4(%esp)
 1197      73080000 
 1198 040a 890424   		movl	%eax, (%esp)
 1199 040d E8000000 		call	_ut_printf
 1199      00
 1200 0412 EB15     		jmp	L49
 1201              	L48:
 1202 0414 A1000000 		movl	_cmd_sht, %eax
 1202      00
 1203 0419 C7442404 		movl	$LC134, 4(%esp)
 1203      78080000 
 1204 0421 890424   		movl	%eax, (%esp)
 1205 0424 E8000000 		call	_ut_printf
 1205      00
 1206              	L49:
 1207 0429 8345F401 		addl	$1, -12(%ebp)
 1208              	L47:
 1209 042d 837DF409 		cmpl	$9, -12(%ebp)
 1210 0431 7EAE     		jle	L50
 1211 0433 A1000000 		movl	_cmd_sht, %eax
 1211      00
 1212 0438 C7442404 		movl	$LC136, 4(%esp)
 1212      84080000 
 1213 0440 890424   		movl	%eax, (%esp)
 1214 0443 E8000000 		call	_ut_printf
 1214      00
 1215 0448 EB01     		jmp	L44
 1216              	L51:
 1217 044a 90       		nop
 1218              	L44:
 1219 044b C9       		leave
 1220              		.cfi_restore 5
 1221              		.cfi_def_cfa 4, 4
 1222 044c C3       		ret
 1223              		.cfi_endproc
 1224              	LFE8:
 1225              		.globl	_a_objout
 1226              		.def	_a_objout;	.scl	2;	.type	32;	.endef
GAS LISTING asm80386_x.s 			page 26


 1227              	_a_objout:
 1228              	LFB9:
 1229              		.cfi_startproc
 1230 044d 55       		pushl	%ebp
 1231              		.cfi_def_cfa_offset 8
 1232              		.cfi_offset 5, -8
 1233 044e 89E5     		movl	%esp, %ebp
 1234              		.cfi_def_cfa_register 5
 1235 0450 83EC10   		subl	$16, %esp
 1236 0453 A1E81B0B 		movl	_a_pass, %eax
 1236      00
 1237 0458 83F803   		cmpl	$3, %eax
 1238 045b 0F85B800 		jne	L59
 1238      0000
 1239 0461 A168170B 		movl	_a_inst_ptr, %eax
 1239      00
 1240 0466 83C005   		addl	$5, %eax
 1241 0469 8945F4   		movl	%eax, -12(%ebp)
 1242 046c 8B0D4417 		movl	_a_objfile, %ecx
 1242      0B00
 1243 0472 A148170B 		movl	_a_objfile_ptr, %eax
 1243      00
 1244 0477 8D5001   		leal	1(%eax), %edx
 1245 047a 89154817 		movl	%edx, _a_objfile_ptr
 1245      0B00
 1246 0480 01C8     		addl	%ecx, %eax
 1247 0482 8B55F4   		movl	-12(%ebp), %edx
 1248 0485 8810     		movb	%dl, (%eax)
 1249 0487 8B0D4417 		movl	_a_objfile, %ecx
 1249      0B00
 1250 048d A148170B 		movl	_a_objfile_ptr, %eax
 1250      00
 1251 0492 8D5001   		leal	1(%eax), %edx
 1252 0495 89154817 		movl	%edx, _a_objfile_ptr
 1252      0B00
 1253 049b 01C8     		addl	%ecx, %eax
 1254 049d C60001   		movb	$1, (%eax)
 1255 04a0 A1E01B0B 		movl	_a_addr, %eax
 1255      00
 1256 04a5 8B00     		movl	(%eax), %eax
 1257 04a7 8945F8   		movl	%eax, -8(%ebp)
 1258 04aa C745FC00 		movl	$0, -4(%ebp)
 1258      000000
 1259 04b1 EB23     		jmp	L55
 1260              	L56:
 1261 04b3 8B0D4417 		movl	_a_objfile, %ecx
 1261      0B00
 1262 04b9 A148170B 		movl	_a_objfile_ptr, %eax
 1262      00
 1263 04be 8D5001   		leal	1(%eax), %edx
 1264 04c1 89154817 		movl	%edx, _a_objfile_ptr
 1264      0B00
 1265 04c7 01C8     		addl	%ecx, %eax
 1266 04c9 8B55F8   		movl	-8(%ebp), %edx
 1267 04cc 8810     		movb	%dl, (%eax)
 1268 04ce C17DF808 		sarl	$8, -8(%ebp)
 1269 04d2 8345FC01 		addl	$1, -4(%ebp)
GAS LISTING asm80386_x.s 			page 27


 1270              	L55:
 1271 04d6 837DFC03 		cmpl	$3, -4(%ebp)
 1272 04da 7ED7     		jle	L56
 1273 04dc C745FC00 		movl	$0, -4(%ebp)
 1273      000000
 1274 04e3 EB28     		jmp	L57
 1275              	L58:
 1276 04e5 8B0D4417 		movl	_a_objfile, %ecx
 1276      0B00
 1277 04eb A148170B 		movl	_a_objfile_ptr, %eax
 1277      00
 1278 04f0 8D5001   		leal	1(%eax), %edx
 1279 04f3 89154817 		movl	%edx, _a_objfile_ptr
 1279      0B00
 1280 04f9 8D1401   		leal	(%ecx,%eax), %edx
 1281 04fc 8B45FC   		movl	-4(%ebp), %eax
 1282 04ff 055C170B 		addl	$_a_inst, %eax
 1282      00
 1283 0504 0FB600   		movzbl	(%eax), %eax
 1284 0507 8802     		movb	%al, (%edx)
 1285 0509 8345FC01 		addl	$1, -4(%ebp)
 1286              	L57:
 1287 050d A168170B 		movl	_a_inst_ptr, %eax
 1287      00
 1288 0512 3945FC   		cmpl	%eax, -4(%ebp)
 1289 0515 7CCE     		jl	L58
 1290 0517 EB01     		jmp	L52
 1291              	L59:
 1292 0519 90       		nop
 1293              	L52:
 1294 051a C9       		leave
 1295              		.cfi_restore 5
 1296              		.cfi_def_cfa 4, 4
 1297 051b C3       		ret
 1298              		.cfi_endproc
 1299              	LFE9:
 1300              		.globl	_a_getnumb
 1301              		.def	_a_getnumb;	.scl	2;	.type	32;	.endef
 1302              	_a_getnumb:
 1303              	LFB10:
 1304              		.cfi_startproc
 1305 051c 55       		pushl	%ebp
 1306              		.cfi_def_cfa_offset 8
 1307              		.cfi_offset 5, -8
 1308 051d 89E5     		movl	%esp, %ebp
 1309              		.cfi_def_cfa_register 5
 1310 051f 83EC18   		subl	$24, %esp
 1311 0522 E8D9FAFF 		call	_a_spskip
 1311      FF
 1312 0527 A1801B0B 		movl	_a_linebufp, %eax
 1312      00
 1313 052c 0FB600   		movzbl	(%eax), %eax
 1314 052f 3C2F     		cmpb	$47, %al
 1315 0531 7E0C     		jle	L61
 1316 0533 A1801B0B 		movl	_a_linebufp, %eax
 1316      00
 1317 0538 0FB600   		movzbl	(%eax), %eax
GAS LISTING asm80386_x.s 			page 28


 1318 053b 3C39     		cmpb	$57, %al
 1319 053d 7E1E     		jle	L62
 1320              	L61:
 1321 053f C7442404 		movl	$459, 4(%esp)
 1321      CB010000 
 1322 0547 C7042405 		movl	$5, (%esp)
 1322      000000
 1323 054e E8C2FBFF 		call	_a_error_message
 1323      FF
 1324 0553 B8FFFFFF 		movl	$-1, %eax
 1324      FF
 1325 0558 E9570100 		jmp	L63
 1325      00
 1326              	L62:
 1327 055d A1801B0B 		movl	_a_linebufp, %eax
 1327      00
 1328 0562 0FB600   		movzbl	(%eax), %eax
 1329 0565 3C30     		cmpb	$48, %al
 1330 0567 0F85ED00 		jne	L64
 1330      0000
 1331 056d A1801B0B 		movl	_a_linebufp, %eax
 1331      00
 1332 0572 83C001   		addl	$1, %eax
 1333 0575 0FB600   		movzbl	(%eax), %eax
 1334 0578 3C78     		cmpb	$120, %al
 1335 057a 0F85DA00 		jne	L64
 1335      0000
 1336 0580 A1801B0B 		movl	_a_linebufp, %eax
 1336      00
 1337 0585 83C002   		addl	$2, %eax
 1338 0588 A3801B0B 		movl	%eax, _a_linebufp
 1338      00
 1339 058d 8B4508   		movl	8(%ebp), %eax
 1340 0590 C7000000 		movl	$0, (%eax)
 1340      0000
 1341              	L69:
 1342 0596 A1801B0B 		movl	_a_linebufp, %eax
 1342      00
 1343 059b 0FB600   		movzbl	(%eax), %eax
 1344 059e 3C2F     		cmpb	$47, %al
 1345 05a0 7E2D     		jle	L65
 1346 05a2 A1801B0B 		movl	_a_linebufp, %eax
 1346      00
 1347 05a7 0FB600   		movzbl	(%eax), %eax
 1348 05aa 3C39     		cmpb	$57, %al
 1349 05ac 7F21     		jg	L65
 1350 05ae 8B4508   		movl	8(%ebp), %eax
 1351 05b1 8B00     		movl	(%eax), %eax
 1352 05b3 C1E004   		sall	$4, %eax
 1353 05b6 89C2     		movl	%eax, %edx
 1354 05b8 A1801B0B 		movl	_a_linebufp, %eax
 1354      00
 1355 05bd 0FB600   		movzbl	(%eax), %eax
 1356 05c0 0FBEC0   		movsbl	%al, %eax
 1357 05c3 01D0     		addl	%edx, %eax
 1358 05c5 8D50D0   		leal	-48(%eax), %edx
 1359 05c8 8B4508   		movl	8(%ebp), %eax
GAS LISTING asm80386_x.s 			page 29


 1360 05cb 8910     		movl	%edx, (%eax)
 1361 05cd EB79     		jmp	L66
 1362              	L65:
 1363 05cf A1801B0B 		movl	_a_linebufp, %eax
 1363      00
 1364 05d4 0FB600   		movzbl	(%eax), %eax
 1365 05d7 3C40     		cmpb	$64, %al
 1366 05d9 7E2D     		jle	L67
 1367 05db A1801B0B 		movl	_a_linebufp, %eax
 1367      00
 1368 05e0 0FB600   		movzbl	(%eax), %eax
 1369 05e3 3C46     		cmpb	$70, %al
 1370 05e5 7F21     		jg	L67
 1371 05e7 8B4508   		movl	8(%ebp), %eax
 1372 05ea 8B00     		movl	(%eax), %eax
 1373 05ec C1E004   		sall	$4, %eax
 1374 05ef 89C2     		movl	%eax, %edx
 1375 05f1 A1801B0B 		movl	_a_linebufp, %eax
 1375      00
 1376 05f6 0FB600   		movzbl	(%eax), %eax
 1377 05f9 0FBEC0   		movsbl	%al, %eax
 1378 05fc 01D0     		addl	%edx, %eax
 1379 05fe 8D50C9   		leal	-55(%eax), %edx
 1380 0601 8B4508   		movl	8(%ebp), %eax
 1381 0604 8910     		movl	%edx, (%eax)
 1382 0606 EB40     		jmp	L66
 1383              	L67:
 1384 0608 A1801B0B 		movl	_a_linebufp, %eax
 1384      00
 1385 060d 0FB600   		movzbl	(%eax), %eax
 1386 0610 3C60     		cmpb	$96, %al
 1387 0612 7E2D     		jle	L68
 1388 0614 A1801B0B 		movl	_a_linebufp, %eax
 1388      00
 1389 0619 0FB600   		movzbl	(%eax), %eax
 1390 061c 3C66     		cmpb	$102, %al
 1391 061e 7F21     		jg	L68
 1392 0620 8B4508   		movl	8(%ebp), %eax
 1393 0623 8B00     		movl	(%eax), %eax
 1394 0625 C1E004   		sall	$4, %eax
 1395 0628 89C2     		movl	%eax, %edx
 1396 062a A1801B0B 		movl	_a_linebufp, %eax
 1396      00
 1397 062f 0FB600   		movzbl	(%eax), %eax
 1398 0632 0FBEC0   		movsbl	%al, %eax
 1399 0635 01D0     		addl	%edx, %eax
 1400 0637 8D50A9   		leal	-87(%eax), %edx
 1401 063a 8B4508   		movl	8(%ebp), %eax
 1402 063d 8910     		movl	%edx, (%eax)
 1403 063f EB07     		jmp	L66
 1404              	L68:
 1405 0641 B8000000 		movl	$0, %eax
 1405      00
 1406 0646 EB6C     		jmp	L63
 1407              	L66:
 1408 0648 A1801B0B 		movl	_a_linebufp, %eax
 1408      00
GAS LISTING asm80386_x.s 			page 30


 1409 064d 83C001   		addl	$1, %eax
 1410 0650 A3801B0B 		movl	%eax, _a_linebufp
 1410      00
 1411 0655 E93CFFFF 		jmp	L69
 1411      FF
 1412              	L64:
 1413 065a 8B4508   		movl	8(%ebp), %eax
 1414 065d C7000000 		movl	$0, (%eax)
 1414      0000
 1415              	L71:
 1416 0663 A1801B0B 		movl	_a_linebufp, %eax
 1416      00
 1417 0668 0FB600   		movzbl	(%eax), %eax
 1418 066b 3C2F     		cmpb	$47, %al
 1419 066d 7E40     		jle	L70
 1420 066f A1801B0B 		movl	_a_linebufp, %eax
 1420      00
 1421 0674 0FB600   		movzbl	(%eax), %eax
 1422 0677 3C39     		cmpb	$57, %al
 1423 0679 7F34     		jg	L70
 1424 067b 8B4508   		movl	8(%ebp), %eax
 1425 067e 8B10     		movl	(%eax), %edx
 1426 0680 89D0     		movl	%edx, %eax
 1427 0682 C1E002   		sall	$2, %eax
 1428 0685 01D0     		addl	%edx, %eax
 1429 0687 01C0     		addl	%eax, %eax
 1430 0689 89C2     		movl	%eax, %edx
 1431 068b A1801B0B 		movl	_a_linebufp, %eax
 1431      00
 1432 0690 0FB600   		movzbl	(%eax), %eax
 1433 0693 0FBEC0   		movsbl	%al, %eax
 1434 0696 01D0     		addl	%edx, %eax
 1435 0698 8D50D0   		leal	-48(%eax), %edx
 1436 069b 8B4508   		movl	8(%ebp), %eax
 1437 069e 8910     		movl	%edx, (%eax)
 1438 06a0 A1801B0B 		movl	_a_linebufp, %eax
 1438      00
 1439 06a5 83C001   		addl	$1, %eax
 1440 06a8 A3801B0B 		movl	%eax, _a_linebufp
 1440      00
 1441 06ad EBB4     		jmp	L71
 1442              	L70:
 1443 06af B8000000 		movl	$0, %eax
 1443      00
 1444              	L63:
 1445 06b4 C9       		leave
 1446              		.cfi_restore 5
 1447              		.cfi_def_cfa 4, 4
 1448 06b5 C3       		ret
 1449              		.cfi_endproc
 1450              	LFE10:
 1451              		.globl	_a_factor
 1452              		.def	_a_factor;	.scl	2;	.type	32;	.endef
 1453              	_a_factor:
 1454              	LFB11:
 1455              		.cfi_startproc
 1456 06b6 55       		pushl	%ebp
GAS LISTING asm80386_x.s 			page 31


 1457              		.cfi_def_cfa_offset 8
 1458              		.cfi_offset 5, -8
 1459 06b7 89E5     		movl	%esp, %ebp
 1460              		.cfi_def_cfa_register 5
 1461 06b9 83EC28   		subl	$40, %esp
 1462 06bc 8B4508   		movl	8(%ebp), %eax
 1463 06bf C7000000 		movl	$0, (%eax)
 1463      0000
 1464 06c5 E836F9FF 		call	_a_spskip
 1464      FF
 1465 06ca A1801B0B 		movl	_a_linebufp, %eax
 1465      00
 1466 06cf 0FB600   		movzbl	(%eax), %eax
 1467 06d2 3C2F     		cmpb	$47, %al
 1468 06d4 7E1C     		jle	L73
 1469 06d6 A1801B0B 		movl	_a_linebufp, %eax
 1469      00
 1470 06db 0FB600   		movzbl	(%eax), %eax
 1471 06de 3C39     		cmpb	$57, %al
 1472 06e0 7F10     		jg	L73
 1473 06e2 8B4508   		movl	8(%ebp), %eax
 1474 06e5 890424   		movl	%eax, (%esp)
 1475 06e8 E82FFEFF 		call	_a_getnumb
 1475      FF
 1476 06ed E9D70200 		jmp	L74
 1476      00
 1477              	L73:
 1478 06f2 E878FAFF 		call	_is_symtop
 1478      FF
 1479 06f7 85C0     		testl	%eax, %eax
 1480 06f9 0F84D300 		je	L75
 1480      0000
 1481 06ff E809FBFF 		call	_a_getsym
 1481      FF
 1482 0704 85C0     		testl	%eax, %eax
 1483 0706 740A     		je	L76
 1484 0708 B8FFFFFF 		movl	$-1, %eax
 1484      FF
 1485 070d E9B70200 		jmp	L74
 1485      00
 1486              	L76:
 1487 0712 E883FBFF 		call	_a_symsrch
 1487      FF
 1488 0717 8945F4   		movl	%eax, -12(%ebp)
 1489 071a A1E81B0B 		movl	_a_pass, %eax
 1489      00
 1490 071f 83F801   		cmpl	$1, %eax
 1491 0722 7513     		jne	L77
 1492 0724 8B4508   		movl	8(%ebp), %eax
 1493 0727 C7000000 		movl	$0, (%eax)
 1493      0000
 1494 072d B8000000 		movl	$0, %eax
 1494      00
 1495 0732 E9920200 		jmp	L74
 1495      00
 1496              	L77:
 1497 0737 837DF400 		cmpl	$0, -12(%ebp)
GAS LISTING asm80386_x.s 			page 32


 1498 073b 791E     		jns	L78
 1499 073d C7442404 		movl	$514, 4(%esp)
 1499      02020000 
 1500 0745 C7042404 		movl	$4, (%esp)
 1500      000000
 1501 074c E8C4F9FF 		call	_a_error_message
 1501      FF
 1502 0751 B8FFFFFF 		movl	$-1, %eax
 1502      FF
 1503 0756 E96E0200 		jmp	L74
 1503      00
 1504              	L78:
 1505 075b 8B55F4   		movl	-12(%ebp), %edx
 1506 075e 89D0     		movl	%edx, %eax
 1507 0760 C1E003   		sall	$3, %eax
 1508 0763 01D0     		addl	%edx, %eax
 1509 0765 C1E003   		sall	$3, %eax
 1510 0768 05400000 		addl	$_a_symtbl+64, %eax
 1510      00
 1511 076d 8B00     		movl	(%eax), %eax
 1512 076f 3DE80300 		cmpl	$1000, %eax
 1512      00
 1513 0774 7439     		je	L79
 1514 0776 8B55F4   		movl	-12(%ebp), %edx
 1515 0779 89D0     		movl	%edx, %eax
 1516 077b C1E003   		sall	$3, %eax
 1517 077e 01D0     		addl	%edx, %eax
 1518 0780 C1E003   		sall	$3, %eax
 1519 0783 05400000 		addl	$_a_symtbl+64, %eax
 1519      00
 1520 0788 8B00     		movl	(%eax), %eax
 1521 078a 3DEB0300 		cmpl	$1003, %eax
 1521      00
 1522 078f 741E     		je	L79
 1523 0791 C7442404 		movl	$518, 4(%esp)
 1523      06020000 
 1524 0799 C7042405 		movl	$5, (%esp)
 1524      000000
 1525 07a0 E870F9FF 		call	_a_error_message
 1525      FF
 1526 07a5 B8FFFFFF 		movl	$-1, %eax
 1526      FF
 1527 07aa E91A0200 		jmp	L74
 1527      00
 1528              	L79:
 1529 07af 8B55F4   		movl	-12(%ebp), %edx
 1530 07b2 89D0     		movl	%edx, %eax
 1531 07b4 C1E003   		sall	$3, %eax
 1532 07b7 01D0     		addl	%edx, %eax
 1533 07b9 C1E003   		sall	$3, %eax
 1534 07bc 05440000 		addl	$_a_symtbl+68, %eax
 1534      00
 1535 07c1 8B10     		movl	(%eax), %edx
 1536 07c3 8B4508   		movl	8(%ebp), %eax
 1537 07c6 8910     		movl	%edx, (%eax)
 1538 07c8 B8000000 		movl	$0, %eax
 1538      00
GAS LISTING asm80386_x.s 			page 33


 1539 07cd E9F70100 		jmp	L74
 1539      00
 1540              	L75:
 1541 07d2 A1801B0B 		movl	_a_linebufp, %eax
 1541      00
 1542 07d7 0FB600   		movzbl	(%eax), %eax
 1543 07da 3C28     		cmpb	$40, %al
 1544 07dc 756C     		jne	L80
 1545 07de A1801B0B 		movl	_a_linebufp, %eax
 1545      00
 1546 07e3 83C001   		addl	$1, %eax
 1547 07e6 A3801B0B 		movl	%eax, _a_linebufp
 1547      00
 1548 07eb 8B4508   		movl	8(%ebp), %eax
 1549 07ee 890424   		movl	%eax, (%esp)
 1550 07f1 E87F0300 		call	_a_expr
 1550      00
 1551 07f6 85C0     		testl	%eax, %eax
 1552 07f8 740A     		je	L81
 1553 07fa B8FFFFFF 		movl	$-1, %eax
 1553      FF
 1554 07ff E9C50100 		jmp	L74
 1554      00
 1555              	L81:
 1556 0804 E8F7F7FF 		call	_a_spskip
 1556      FF
 1557 0809 A1801B0B 		movl	_a_linebufp, %eax
 1557      00
 1558 080e 0FB600   		movzbl	(%eax), %eax
 1559 0811 3C29     		cmpb	$41, %al
 1560 0813 7517     		jne	L82
 1561 0815 A1801B0B 		movl	_a_linebufp, %eax
 1561      00
 1562 081a 83C001   		addl	$1, %eax
 1563 081d A3801B0B 		movl	%eax, _a_linebufp
 1563      00
 1564 0822 B8000000 		movl	$0, %eax
 1564      00
 1565 0827 E99D0100 		jmp	L74
 1565      00
 1566              	L82:
 1567 082c C7442404 		movl	$535, 4(%esp)
 1567      17020000 
 1568 0834 C7042405 		movl	$5, (%esp)
 1568      000000
 1569 083b E8D5F8FF 		call	_a_error_message
 1569      FF
 1570 0840 B8FFFFFF 		movl	$-1, %eax
 1570      FF
 1571 0845 E97F0100 		jmp	L74
 1571      00
 1572              	L80:
 1573 084a A1801B0B 		movl	_a_linebufp, %eax
 1573      00
 1574 084f 0FB600   		movzbl	(%eax), %eax
 1575 0852 3C24     		cmpb	$36, %al
 1576 0854 7523     		jne	L83
GAS LISTING asm80386_x.s 			page 34


 1577 0856 A1801B0B 		movl	_a_linebufp, %eax
 1577      00
 1578 085b 83C001   		addl	$1, %eax
 1579 085e A3801B0B 		movl	%eax, _a_linebufp
 1579      00
 1580 0863 A1E01B0B 		movl	_a_addr, %eax
 1580      00
 1581 0868 8B10     		movl	(%eax), %edx
 1582 086a 8B4508   		movl	8(%ebp), %eax
 1583 086d 8910     		movl	%edx, (%eax)
 1584 086f B8000000 		movl	$0, %eax
 1584      00
 1585 0874 E9500100 		jmp	L74
 1585      00
 1586              	L83:
 1587 0879 A1801B0B 		movl	_a_linebufp, %eax
 1587      00
 1588 087e 0FB600   		movzbl	(%eax), %eax
 1589 0881 3C27     		cmpb	$39, %al
 1590 0883 0F853B01 		jne	L84
 1590      0000
 1591 0889 A1801B0B 		movl	_a_linebufp, %eax
 1591      00
 1592 088e 83C001   		addl	$1, %eax
 1593 0891 A3801B0B 		movl	%eax, _a_linebufp
 1593      00
 1594 0896 A1801B0B 		movl	_a_linebufp, %eax
 1594      00
 1595 089b 0FB600   		movzbl	(%eax), %eax
 1596 089e 3C5C     		cmpb	$92, %al
 1597 08a0 0F85C600 		jne	L85
 1597      0000
 1598 08a6 A1801B0B 		movl	_a_linebufp, %eax
 1598      00
 1599 08ab 83C001   		addl	$1, %eax
 1600 08ae A3801B0B 		movl	%eax, _a_linebufp
 1600      00
 1601 08b3 A1801B0B 		movl	_a_linebufp, %eax
 1601      00
 1602 08b8 0FB600   		movzbl	(%eax), %eax
 1603 08bb 3C5C     		cmpb	$92, %al
 1604 08bd 750E     		jne	L86
 1605 08bf 8B4508   		movl	8(%ebp), %eax
 1606 08c2 C7005C00 		movl	$92, (%eax)
 1606      0000
 1607 08c8 E9AF0000 		jmp	L87
 1607      00
 1608              	L86:
 1609 08cd A1801B0B 		movl	_a_linebufp, %eax
 1609      00
 1610 08d2 0FB600   		movzbl	(%eax), %eax
 1611 08d5 3C72     		cmpb	$114, %al
 1612 08d7 750E     		jne	L88
 1613 08d9 8B4508   		movl	8(%ebp), %eax
 1614 08dc C7000D00 		movl	$13, (%eax)
 1614      0000
 1615 08e2 E9950000 		jmp	L87
GAS LISTING asm80386_x.s 			page 35


 1615      00
 1616              	L88:
 1617 08e7 A1801B0B 		movl	_a_linebufp, %eax
 1617      00
 1618 08ec 0FB600   		movzbl	(%eax), %eax
 1619 08ef 3C6E     		cmpb	$110, %al
 1620 08f1 750B     		jne	L89
 1621 08f3 8B4508   		movl	8(%ebp), %eax
 1622 08f6 C7000A00 		movl	$10, (%eax)
 1622      0000
 1623 08fc EB7E     		jmp	L87
 1624              	L89:
 1625 08fe A1801B0B 		movl	_a_linebufp, %eax
 1625      00
 1626 0903 0FB600   		movzbl	(%eax), %eax
 1627 0906 3C62     		cmpb	$98, %al
 1628 0908 750B     		jne	L90
 1629 090a 8B4508   		movl	8(%ebp), %eax
 1630 090d C7000800 		movl	$8, (%eax)
 1630      0000
 1631 0913 EB67     		jmp	L87
 1632              	L90:
 1633 0915 A1801B0B 		movl	_a_linebufp, %eax
 1633      00
 1634 091a 0FB600   		movzbl	(%eax), %eax
 1635 091d 3C74     		cmpb	$116, %al
 1636 091f 750B     		jne	L91
 1637 0921 8B4508   		movl	8(%ebp), %eax
 1638 0924 C7000900 		movl	$9, (%eax)
 1638      0000
 1639 092a EB50     		jmp	L87
 1640              	L91:
 1641 092c A1801B0B 		movl	_a_linebufp, %eax
 1641      00
 1642 0931 0FB600   		movzbl	(%eax), %eax
 1643 0934 3C27     		cmpb	$39, %al
 1644 0936 750B     		jne	L92
 1645 0938 8B4508   		movl	8(%ebp), %eax
 1646 093b C7002700 		movl	$39, (%eax)
 1646      0000
 1647 0941 EB39     		jmp	L87
 1648              	L92:
 1649 0943 A1801B0B 		movl	_a_linebufp, %eax
 1649      00
 1650 0948 0FB600   		movzbl	(%eax), %eax
 1651 094b 3C22     		cmpb	$34, %al
 1652 094d 750B     		jne	L93
 1653 094f 8B4508   		movl	8(%ebp), %eax
 1654 0952 C7002200 		movl	$34, (%eax)
 1654      0000
 1655 0958 EB22     		jmp	L87
 1656              	L93:
 1657 095a A1801B0B 		movl	_a_linebufp, %eax
 1657      00
 1658 095f 0FB600   		movzbl	(%eax), %eax
 1659 0962 0FBED0   		movsbl	%al, %edx
 1660 0965 8B4508   		movl	8(%ebp), %eax
GAS LISTING asm80386_x.s 			page 36


 1661 0968 8910     		movl	%edx, (%eax)
 1662 096a EB10     		jmp	L87
 1663              	L85:
 1664 096c A1801B0B 		movl	_a_linebufp, %eax
 1664      00
 1665 0971 0FB600   		movzbl	(%eax), %eax
 1666 0974 0FBED0   		movsbl	%al, %edx
 1667 0977 8B4508   		movl	8(%ebp), %eax
 1668 097a 8910     		movl	%edx, (%eax)
 1669              	L87:
 1670 097c A1801B0B 		movl	_a_linebufp, %eax
 1670      00
 1671 0981 83C001   		addl	$1, %eax
 1672 0984 A3801B0B 		movl	%eax, _a_linebufp
 1672      00
 1673 0989 A1801B0B 		movl	_a_linebufp, %eax
 1673      00
 1674 098e 0FB600   		movzbl	(%eax), %eax
 1675 0991 3C27     		cmpb	$39, %al
 1676 0993 741B     		je	L94
 1677 0995 C7442404 		movl	$577, 4(%esp)
 1677      41020000 
 1678 099d C7042405 		movl	$5, (%esp)
 1678      000000
 1679 09a4 E86CF7FF 		call	_a_error_message
 1679      FF
 1680 09a9 B8FFFFFF 		movl	$-1, %eax
 1680      FF
 1681 09ae EB19     		jmp	L74
 1682              	L94:
 1683 09b0 A1801B0B 		movl	_a_linebufp, %eax
 1683      00
 1684 09b5 83C001   		addl	$1, %eax
 1685 09b8 A3801B0B 		movl	%eax, _a_linebufp
 1685      00
 1686 09bd B8000000 		movl	$0, %eax
 1686      00
 1687 09c2 EB05     		jmp	L74
 1688              	L84:
 1689 09c4 B8000000 		movl	$0, %eax
 1689      00
 1690              	L74:
 1691 09c9 C9       		leave
 1692              		.cfi_restore 5
 1693              		.cfi_def_cfa 4, 4
 1694 09ca C3       		ret
 1695              		.cfi_endproc
 1696              	LFE11:
 1697              		.globl	_a_factor1
 1698              		.def	_a_factor1;	.scl	2;	.type	32;	.endef
 1699              	_a_factor1:
 1700              	LFB12:
 1701              		.cfi_startproc
 1702 09cb 55       		pushl	%ebp
 1703              		.cfi_def_cfa_offset 8
 1704              		.cfi_offset 5, -8
 1705 09cc 89E5     		movl	%esp, %ebp
GAS LISTING asm80386_x.s 			page 37


 1706              		.cfi_def_cfa_register 5
 1707 09ce 83EC28   		subl	$40, %esp
 1708 09d1 8B4508   		movl	8(%ebp), %eax
 1709 09d4 890424   		movl	%eax, (%esp)
 1710 09d7 E8DAFCFF 		call	_a_factor
 1710      FF
 1711 09dc 85C0     		testl	%eax, %eax
 1712 09de 740A     		je	L96
 1713 09e0 B8FFFFFF 		movl	$-1, %eax
 1713      FF
 1714 09e5 E9880000 		jmp	L102
 1714      00
 1715              	L96:
 1716 09ea E811F6FF 		call	_a_spskip
 1716      FF
 1717 09ef A1801B0B 		movl	_a_linebufp, %eax
 1717      00
 1718 09f4 0FB600   		movzbl	(%eax), %eax
 1719 09f7 3C26     		cmpb	$38, %al
 1720 09f9 7534     		jne	L98
 1721 09fb A1801B0B 		movl	_a_linebufp, %eax
 1721      00
 1722 0a00 83C001   		addl	$1, %eax
 1723 0a03 A3801B0B 		movl	%eax, _a_linebufp
 1723      00
 1724 0a08 8D45F4   		leal	-12(%ebp), %eax
 1725 0a0b 890424   		movl	%eax, (%esp)
 1726 0a0e E8A3FCFF 		call	_a_factor
 1726      FF
 1727 0a13 85C0     		testl	%eax, %eax
 1728 0a15 7407     		je	L99
 1729 0a17 B8FFFFFF 		movl	$-1, %eax
 1729      FF
 1730 0a1c EB54     		jmp	L102
 1731              	L99:
 1732 0a1e 8B4508   		movl	8(%ebp), %eax
 1733 0a21 8B10     		movl	(%eax), %edx
 1734 0a23 8B45F4   		movl	-12(%ebp), %eax
 1735 0a26 21C2     		andl	%eax, %edx
 1736 0a28 8B4508   		movl	8(%ebp), %eax
 1737 0a2b 8910     		movl	%edx, (%eax)
 1738 0a2d EB3E     		jmp	L100
 1739              	L98:
 1740 0a2f A1801B0B 		movl	_a_linebufp, %eax
 1740      00
 1741 0a34 0FB600   		movzbl	(%eax), %eax
 1742 0a37 3C7C     		cmpb	$124, %al
 1743 0a39 7532     		jne	L100
 1744 0a3b A1801B0B 		movl	_a_linebufp, %eax
 1744      00
 1745 0a40 83C001   		addl	$1, %eax
 1746 0a43 A3801B0B 		movl	%eax, _a_linebufp
 1746      00
 1747 0a48 8D45F4   		leal	-12(%ebp), %eax
 1748 0a4b 890424   		movl	%eax, (%esp)
 1749 0a4e E863FCFF 		call	_a_factor
 1749      FF
GAS LISTING asm80386_x.s 			page 38


 1750 0a53 85C0     		testl	%eax, %eax
 1751 0a55 7407     		je	L101
 1752 0a57 B8FFFFFF 		movl	$-1, %eax
 1752      FF
 1753 0a5c EB14     		jmp	L102
 1754              	L101:
 1755 0a5e 8B4508   		movl	8(%ebp), %eax
 1756 0a61 8B10     		movl	(%eax), %edx
 1757 0a63 8B45F4   		movl	-12(%ebp), %eax
 1758 0a66 09C2     		orl	%eax, %edx
 1759 0a68 8B4508   		movl	8(%ebp), %eax
 1760 0a6b 8910     		movl	%edx, (%eax)
 1761              	L100:
 1762 0a6d B8000000 		movl	$0, %eax
 1762      00
 1763              	L102:
 1764 0a72 C9       		leave
 1765              		.cfi_restore 5
 1766              		.cfi_def_cfa 4, 4
 1767 0a73 C3       		ret
 1768              		.cfi_endproc
 1769              	LFE12:
 1770              		.globl	_a_term
 1771              		.def	_a_term;	.scl	2;	.type	32;	.endef
 1772              	_a_term:
 1773              	LFB13:
 1774              		.cfi_startproc
 1775 0a74 55       		pushl	%ebp
 1776              		.cfi_def_cfa_offset 8
 1777              		.cfi_offset 5, -8
 1778 0a75 89E5     		movl	%esp, %ebp
 1779              		.cfi_def_cfa_register 5
 1780 0a77 83EC28   		subl	$40, %esp
 1781 0a7a 8B4508   		movl	8(%ebp), %eax
 1782 0a7d 890424   		movl	%eax, (%esp)
 1783 0a80 E846FFFF 		call	_a_factor1
 1783      FF
 1784 0a85 85C0     		testl	%eax, %eax
 1785 0a87 740A     		je	L104
 1786 0a89 B8FFFFFF 		movl	$-1, %eax
 1786      FF
 1787 0a8e E9E00000 		jmp	L113
 1787      00
 1788              	L104:
 1789 0a93 E868F5FF 		call	_a_spskip
 1789      FF
 1790 0a98 A1801B0B 		movl	_a_linebufp, %eax
 1790      00
 1791 0a9d 0FB600   		movzbl	(%eax), %eax
 1792 0aa0 3C2A     		cmpb	$42, %al
 1793 0aa2 7538     		jne	L106
 1794 0aa4 A1801B0B 		movl	_a_linebufp, %eax
 1794      00
 1795 0aa9 83C001   		addl	$1, %eax
 1796 0aac A3801B0B 		movl	%eax, _a_linebufp
 1796      00
 1797 0ab1 8D45F4   		leal	-12(%ebp), %eax
GAS LISTING asm80386_x.s 			page 39


 1798 0ab4 890424   		movl	%eax, (%esp)
 1799 0ab7 E80FFFFF 		call	_a_factor1
 1799      FF
 1800 0abc 85C0     		testl	%eax, %eax
 1801 0abe 740A     		je	L107
 1802 0ac0 B8FFFFFF 		movl	$-1, %eax
 1802      FF
 1803 0ac5 E9A90000 		jmp	L113
 1803      00
 1804              	L107:
 1805 0aca 8B4508   		movl	8(%ebp), %eax
 1806 0acd 8B10     		movl	(%eax), %edx
 1807 0acf 8B45F4   		movl	-12(%ebp), %eax
 1808 0ad2 0FAFD0   		imull	%eax, %edx
 1809 0ad5 8B4508   		movl	8(%ebp), %eax
 1810 0ad8 8910     		movl	%edx, (%eax)
 1811 0ada EBB7     		jmp	L104
 1812              	L106:
 1813 0adc A1801B0B 		movl	_a_linebufp, %eax
 1813      00
 1814 0ae1 0FB600   		movzbl	(%eax), %eax
 1815 0ae4 3C2F     		cmpb	$47, %al
 1816 0ae6 753E     		jne	L109
 1817 0ae8 A1801B0B 		movl	_a_linebufp, %eax
 1817      00
 1818 0aed 83C001   		addl	$1, %eax
 1819 0af0 A3801B0B 		movl	%eax, _a_linebufp
 1819      00
 1820 0af5 8D45F4   		leal	-12(%ebp), %eax
 1821 0af8 890424   		movl	%eax, (%esp)
 1822 0afb E8CBFEFF 		call	_a_factor1
 1822      FF
 1823 0b00 85C0     		testl	%eax, %eax
 1824 0b02 7407     		je	L110
 1825 0b04 B8FFFFFF 		movl	$-1, %eax
 1825      FF
 1826 0b09 EB68     		jmp	L113
 1827              	L110:
 1828 0b0b 8B4508   		movl	8(%ebp), %eax
 1829 0b0e 8B00     		movl	(%eax), %eax
 1830 0b10 8B4DF4   		movl	-12(%ebp), %ecx
 1831 0b13 BA000000 		movl	$0, %edx
 1831      00
 1832 0b18 F7F1     		divl	%ecx
 1833 0b1a 89C2     		movl	%eax, %edx
 1834 0b1c 8B4508   		movl	8(%ebp), %eax
 1835 0b1f 8910     		movl	%edx, (%eax)
 1836 0b21 E96DFFFF 		jmp	L104
 1836      FF
 1837              	L109:
 1838 0b26 A1801B0B 		movl	_a_linebufp, %eax
 1838      00
 1839 0b2b 0FB600   		movzbl	(%eax), %eax
 1840 0b2e 3C25     		cmpb	$37, %al
 1841 0b30 753C     		jne	L111
 1842 0b32 A1801B0B 		movl	_a_linebufp, %eax
 1842      00
GAS LISTING asm80386_x.s 			page 40


 1843 0b37 83C001   		addl	$1, %eax
 1844 0b3a A3801B0B 		movl	%eax, _a_linebufp
 1844      00
 1845 0b3f 8D45F4   		leal	-12(%ebp), %eax
 1846 0b42 890424   		movl	%eax, (%esp)
 1847 0b45 E881FEFF 		call	_a_factor1
 1847      FF
 1848 0b4a 85C0     		testl	%eax, %eax
 1849 0b4c 7407     		je	L112
 1850 0b4e B8FFFFFF 		movl	$-1, %eax
 1850      FF
 1851 0b53 EB1E     		jmp	L113
 1852              	L112:
 1853 0b55 8B4508   		movl	8(%ebp), %eax
 1854 0b58 8B00     		movl	(%eax), %eax
 1855 0b5a 8B4DF4   		movl	-12(%ebp), %ecx
 1856 0b5d BA000000 		movl	$0, %edx
 1856      00
 1857 0b62 F7F1     		divl	%ecx
 1858 0b64 8B4508   		movl	8(%ebp), %eax
 1859 0b67 8910     		movl	%edx, (%eax)
 1860 0b69 E925FFFF 		jmp	L104
 1860      FF
 1861              	L111:
 1862 0b6e B8000000 		movl	$0, %eax
 1862      00
 1863              	L113:
 1864 0b73 C9       		leave
 1865              		.cfi_restore 5
 1866              		.cfi_def_cfa 4, 4
 1867 0b74 C3       		ret
 1868              		.cfi_endproc
 1869              	LFE13:
 1870              		.globl	_a_expr
 1871              		.def	_a_expr;	.scl	2;	.type	32;	.endef
 1872              	_a_expr:
 1873              	LFB14:
 1874              		.cfi_startproc
 1875 0b75 55       		pushl	%ebp
 1876              		.cfi_def_cfa_offset 8
 1877              		.cfi_offset 5, -8
 1878 0b76 89E5     		movl	%esp, %ebp
 1879              		.cfi_def_cfa_register 5
 1880 0b78 83EC28   		subl	$40, %esp
 1881 0b7b C745F400 		movl	$0, -12(%ebp)
 1881      000000
 1882 0b82 E879F4FF 		call	_a_spskip
 1882      FF
 1883 0b87 A1801B0B 		movl	_a_linebufp, %eax
 1883      00
 1884 0b8c 0FB600   		movzbl	(%eax), %eax
 1885 0b8f 3C2D     		cmpb	$45, %al
 1886 0b91 7514     		jne	L115
 1887 0b93 A1801B0B 		movl	_a_linebufp, %eax
 1887      00
 1888 0b98 83C001   		addl	$1, %eax
 1889 0b9b A3801B0B 		movl	%eax, _a_linebufp
GAS LISTING asm80386_x.s 			page 41


 1889      00
 1890 0ba0 C745F401 		movl	$1, -12(%ebp)
 1890      000000
 1891              	L115:
 1892 0ba7 8B4508   		movl	8(%ebp), %eax
 1893 0baa 890424   		movl	%eax, (%esp)
 1894 0bad E8C2FEFF 		call	_a_term
 1894      FF
 1895 0bb2 85C0     		testl	%eax, %eax
 1896 0bb4 740A     		je	L116
 1897 0bb6 B8FFFFFF 		movl	$-1, %eax
 1897      FF
 1898 0bbb E9A30000 		jmp	L125
 1898      00
 1899              	L116:
 1900 0bc0 837DF400 		cmpl	$0, -12(%ebp)
 1901 0bc4 740E     		je	L124
 1902 0bc6 8B4508   		movl	8(%ebp), %eax
 1903 0bc9 8B00     		movl	(%eax), %eax
 1904 0bcb F7D8     		negl	%eax
 1905 0bcd 89C2     		movl	%eax, %edx
 1906 0bcf 8B4508   		movl	8(%ebp), %eax
 1907 0bd2 8910     		movl	%edx, (%eax)
 1908              	L124:
 1909 0bd4 E827F4FF 		call	_a_spskip
 1909      FF
 1910 0bd9 A1801B0B 		movl	_a_linebufp, %eax
 1910      00
 1911 0bde 0FB600   		movzbl	(%eax), %eax
 1912 0be1 3C2B     		cmpb	$43, %al
 1913 0be3 7534     		jne	L119
 1914 0be5 A1801B0B 		movl	_a_linebufp, %eax
 1914      00
 1915 0bea 83C001   		addl	$1, %eax
 1916 0bed A3801B0B 		movl	%eax, _a_linebufp
 1916      00
 1917 0bf2 8D45F0   		leal	-16(%ebp), %eax
 1918 0bf5 890424   		movl	%eax, (%esp)
 1919 0bf8 E877FEFF 		call	_a_term
 1919      FF
 1920 0bfd 85C0     		testl	%eax, %eax
 1921 0bff 7407     		je	L120
 1922 0c01 B8FFFFFF 		movl	$-1, %eax
 1922      FF
 1923 0c06 EB5B     		jmp	L125
 1924              	L120:
 1925 0c08 8B4508   		movl	8(%ebp), %eax
 1926 0c0b 8B10     		movl	(%eax), %edx
 1927 0c0d 8B45F0   		movl	-16(%ebp), %eax
 1928 0c10 01C2     		addl	%eax, %edx
 1929 0c12 8B4508   		movl	8(%ebp), %eax
 1930 0c15 8910     		movl	%edx, (%eax)
 1931 0c17 EBBB     		jmp	L124
 1932              	L119:
 1933 0c19 A1801B0B 		movl	_a_linebufp, %eax
 1933      00
 1934 0c1e 0FB600   		movzbl	(%eax), %eax
GAS LISTING asm80386_x.s 			page 42


 1935 0c21 3C2D     		cmpb	$45, %al
 1936 0c23 7539     		jne	L122
 1937 0c25 A1801B0B 		movl	_a_linebufp, %eax
 1937      00
 1938 0c2a 83C001   		addl	$1, %eax
 1939 0c2d A3801B0B 		movl	%eax, _a_linebufp
 1939      00
 1940 0c32 8D45F0   		leal	-16(%ebp), %eax
 1941 0c35 890424   		movl	%eax, (%esp)
 1942 0c38 E837FEFF 		call	_a_term
 1942      FF
 1943 0c3d 85C0     		testl	%eax, %eax
 1944 0c3f 7407     		je	L123
 1945 0c41 B8FFFFFF 		movl	$-1, %eax
 1945      FF
 1946 0c46 EB1B     		jmp	L125
 1947              	L123:
 1948 0c48 8B4508   		movl	8(%ebp), %eax
 1949 0c4b 8B00     		movl	(%eax), %eax
 1950 0c4d 8B4DF0   		movl	-16(%ebp), %ecx
 1951 0c50 29C8     		subl	%ecx, %eax
 1952 0c52 89C2     		movl	%eax, %edx
 1953 0c54 8B4508   		movl	8(%ebp), %eax
 1954 0c57 8910     		movl	%edx, (%eax)
 1955 0c59 E976FFFF 		jmp	L124
 1955      FF
 1956              	L122:
 1957 0c5e B8000000 		movl	$0, %eax
 1957      00
 1958              	L125:
 1959 0c63 C9       		leave
 1960              		.cfi_restore 5
 1961              		.cfi_def_cfa 4, 4
 1962 0c64 C3       		ret
 1963              		.cfi_endproc
 1964              	LFE14:
 1965              		.globl	_a_get_regoperand
 1966              		.def	_a_get_regoperand;	.scl	2;	.type	32;	.endef
 1967              	_a_get_regoperand:
 1968              	LFB15:
 1969              		.cfi_startproc
 1970 0c65 55       		pushl	%ebp
 1971              		.cfi_def_cfa_offset 8
 1972              		.cfi_offset 5, -8
 1973 0c66 89E5     		movl	%esp, %ebp
 1974              		.cfi_def_cfa_register 5
 1975 0c68 83EC18   		subl	$24, %esp
 1976 0c6b E890F3FF 		call	_a_spskip
 1976      FF
 1977 0c70 E8FAF4FF 		call	_is_symtop
 1977      FF
 1978 0c75 85C0     		testl	%eax, %eax
 1979 0c77 750A     		jne	L127
 1980 0c79 B8000000 		movl	$0, %eax
 1980      00
 1981 0c7e E9900000 		jmp	L128
 1981      00
GAS LISTING asm80386_x.s 			page 43


 1982              	L127:
 1983 0c83 A1801B0B 		movl	_a_linebufp, %eax
 1983      00
 1984 0c88 8945F4   		movl	%eax, -12(%ebp)
 1985 0c8b E87DF5FF 		call	_a_getsym
 1985      FF
 1986 0c90 85C0     		testl	%eax, %eax
 1987 0c92 7407     		je	L129
 1988 0c94 B8000000 		movl	$0, %eax
 1988      00
 1989 0c99 EB78     		jmp	L128
 1990              	L129:
 1991 0c9b E8FAF5FF 		call	_a_symsrch
 1991      FF
 1992 0ca0 8945F0   		movl	%eax, -16(%ebp)
 1993 0ca3 837DF000 		cmpl	$0, -16(%ebp)
 1994 0ca7 785D     		js	L130
 1995 0ca9 8B55F0   		movl	-16(%ebp), %edx
 1996 0cac 89D0     		movl	%edx, %eax
 1997 0cae C1E003   		sall	$3, %eax
 1998 0cb1 01D0     		addl	%edx, %eax
 1999 0cb3 C1E003   		sall	$3, %eax
 2000 0cb6 05400000 		addl	$_a_symtbl+64, %eax
 2000      00
 2001 0cbb 8B00     		movl	(%eax), %eax
 2002 0cbd 3DC80000 		cmpl	$200, %eax
 2002      00
 2003 0cc2 7542     		jne	L130
 2004 0cc4 8B55F0   		movl	-16(%ebp), %edx
 2005 0cc7 89D0     		movl	%edx, %eax
 2006 0cc9 C1E003   		sall	$3, %eax
 2007 0ccc 01D0     		addl	%edx, %eax
 2008 0cce C1E003   		sall	$3, %eax
 2009 0cd1 05440000 		addl	$_a_symtbl+68, %eax
 2009      00
 2010 0cd6 8B00     		movl	(%eax), %eax
 2011 0cd8 C1E808   		shrl	$8, %eax
 2012 0cdb 89C2     		movl	%eax, %edx
 2013 0cdd 8B4508   		movl	8(%ebp), %eax
 2014 0ce0 8910     		movl	%edx, (%eax)
 2015 0ce2 8B55F0   		movl	-16(%ebp), %edx
 2016 0ce5 89D0     		movl	%edx, %eax
 2017 0ce7 C1E003   		sall	$3, %eax
 2018 0cea 01D0     		addl	%edx, %eax
 2019 0cec C1E003   		sall	$3, %eax
 2020 0cef 05440000 		addl	$_a_symtbl+68, %eax
 2020      00
 2021 0cf4 8B00     		movl	(%eax), %eax
 2022 0cf6 0FB6D0   		movzbl	%al, %edx
 2023 0cf9 8B4508   		movl	8(%ebp), %eax
 2024 0cfc 895004   		movl	%edx, 4(%eax)
 2025 0cff B8010000 		movl	$1, %eax
 2025      00
 2026 0d04 EB0D     		jmp	L128
 2027              	L130:
 2028 0d06 8B45F4   		movl	-12(%ebp), %eax
 2029 0d09 A3801B0B 		movl	%eax, _a_linebufp
GAS LISTING asm80386_x.s 			page 44


 2029      00
 2030 0d0e B8000000 		movl	$0, %eax
 2030      00
 2031              	L128:
 2032 0d13 C9       		leave
 2033              		.cfi_restore 5
 2034              		.cfi_def_cfa 4, 4
 2035 0d14 C3       		ret
 2036              		.cfi_endproc
 2037              	LFE15:
 2038              		.globl	_a_get_const_operand
 2039              		.def	_a_get_const_operand;	.scl	2;	.type	32;	.endef
 2040              	_a_get_const_operand:
 2041              	LFB16:
 2042              		.cfi_startproc
 2043 0d15 55       		pushl	%ebp
 2044              		.cfi_def_cfa_offset 8
 2045              		.cfi_offset 5, -8
 2046 0d16 89E5     		movl	%esp, %ebp
 2047              		.cfi_def_cfa_register 5
 2048 0d18 83EC28   		subl	$40, %esp
 2049 0d1b E8E0F2FF 		call	_a_spskip
 2049      FF
 2050 0d20 E84AF4FF 		call	_is_symtop
 2050      FF
 2051 0d25 85C0     		testl	%eax, %eax
 2052 0d27 0F848D00 		je	L132
 2052      0000
 2053 0d2d A1801B0B 		movl	_a_linebufp, %eax
 2053      00
 2054 0d32 8945F4   		movl	%eax, -12(%ebp)
 2055 0d35 E8D3F4FF 		call	_a_getsym
 2055      FF
 2056 0d3a 85C0     		testl	%eax, %eax
 2057 0d3c 740A     		je	L133
 2058 0d3e B8FFFFFF 		movl	$-1, %eax
 2058      FF
 2059 0d43 E9DF0000 		jmp	L134
 2059      00
 2060              	L133:
 2061 0d48 E84DF5FF 		call	_a_symsrch
 2061      FF
 2062 0d4d 8945F0   		movl	%eax, -16(%ebp)
 2063 0d50 837DF000 		cmpl	$0, -16(%ebp)
 2064 0d54 785C     		js	L135
 2065 0d56 8B55F0   		movl	-16(%ebp), %edx
 2066 0d59 89D0     		movl	%edx, %eax
 2067 0d5b C1E003   		sall	$3, %eax
 2068 0d5e 01D0     		addl	%edx, %eax
 2069 0d60 C1E003   		sall	$3, %eax
 2070 0d63 05400000 		addl	$_a_symtbl+64, %eax
 2070      00
 2071 0d68 8B00     		movl	(%eax), %eax
 2072 0d6a 3DEF0300 		cmpl	$1007, %eax
 2072      00
 2073 0d6f 7541     		jne	L135
 2074 0d71 8B4508   		movl	8(%ebp), %eax
GAS LISTING asm80386_x.s 			page 45


 2075 0d74 83C008   		addl	$8, %eax
 2076 0d77 890424   		movl	%eax, (%esp)
 2077 0d7a E8F6FDFF 		call	_a_expr
 2077      FF
 2078 0d7f 85C0     		testl	%eax, %eax
 2079 0d81 740A     		je	L136
 2080 0d83 B8FFFFFF 		movl	$-1, %eax
 2080      FF
 2081 0d88 E99A0000 		jmp	L134
 2081      00
 2082              	L136:
 2083 0d8d 8B55F0   		movl	-16(%ebp), %edx
 2084 0d90 89D0     		movl	%edx, %eax
 2085 0d92 C1E003   		sall	$3, %eax
 2086 0d95 01D0     		addl	%edx, %eax
 2087 0d97 C1E003   		sall	$3, %eax
 2088 0d9a 05440000 		addl	$_a_symtbl+68, %eax
 2088      00
 2089 0d9f 8B00     		movl	(%eax), %eax
 2090 0da1 83C009   		addl	$9, %eax
 2091 0da4 89C2     		movl	%eax, %edx
 2092 0da6 8B4508   		movl	8(%ebp), %eax
 2093 0da9 8910     		movl	%edx, (%eax)
 2094 0dab B8000000 		movl	$0, %eax
 2094      00
 2095 0db0 EB75     		jmp	L134
 2096              	L135:
 2097 0db2 8B45F4   		movl	-12(%ebp), %eax
 2098 0db5 A3801B0B 		movl	%eax, _a_linebufp
 2098      00
 2099              	L132:
 2100 0dba 8B4508   		movl	8(%ebp), %eax
 2101 0dbd 83C008   		addl	$8, %eax
 2102 0dc0 890424   		movl	%eax, (%esp)
 2103 0dc3 E8ADFDFF 		call	_a_expr
 2103      FF
 2104 0dc8 85C0     		testl	%eax, %eax
 2105 0dca 7407     		je	L137
 2106 0dcc B8FFFFFF 		movl	$-1, %eax
 2106      FF
 2107 0dd1 EB54     		jmp	L134
 2108              	L137:
 2109 0dd3 8B4508   		movl	8(%ebp), %eax
 2110 0dd6 8B4008   		movl	8(%eax), %eax
 2111 0dd9 83F880   		cmpl	$-128, %eax
 2112 0ddc 7C16     		jl	L138
 2113 0dde 8B4508   		movl	8(%ebp), %eax
 2114 0de1 8B4008   		movl	8(%eax), %eax
 2115 0de4 83F87F   		cmpl	$127, %eax
 2116 0de7 7F0B     		jg	L138
 2117 0de9 8B4508   		movl	8(%ebp), %eax
 2118 0dec C7000A00 		movl	$10, (%eax)
 2118      0000
 2119 0df2 EB2E     		jmp	L139
 2120              	L138:
 2121 0df4 8B4508   		movl	8(%ebp), %eax
 2122 0df7 8B4008   		movl	8(%eax), %eax
GAS LISTING asm80386_x.s 			page 46


 2123 0dfa 3D0080FF 		cmpl	$-32768, %eax
 2123      FF
 2124 0dff 7C18     		jl	L140
 2125 0e01 8B4508   		movl	8(%ebp), %eax
 2126 0e04 8B4008   		movl	8(%eax), %eax
 2127 0e07 3DFF7F00 		cmpl	$32767, %eax
 2127      00
 2128 0e0c 7F0B     		jg	L140
 2129 0e0e 8B4508   		movl	8(%ebp), %eax
 2130 0e11 C7000B00 		movl	$11, (%eax)
 2130      0000
 2131 0e17 EB09     		jmp	L139
 2132              	L140:
 2133 0e19 8B4508   		movl	8(%ebp), %eax
 2134 0e1c C7000C00 		movl	$12, (%eax)
 2134      0000
 2135              	L139:
 2136 0e22 B8000000 		movl	$0, %eax
 2136      00
 2137              	L134:
 2138 0e27 C9       		leave
 2139              		.cfi_restore 5
 2140              		.cfi_def_cfa 4, 4
 2141 0e28 C3       		ret
 2142              		.cfi_endproc
 2143              	LFE16:
 2144              		.globl	_a_get_EA_operand
 2145              		.def	_a_get_EA_operand;	.scl	2;	.type	32;	.endef
 2146              	_a_get_EA_operand:
 2147              	LFB17:
 2148              		.cfi_startproc
 2149 0e29 55       		pushl	%ebp
 2150              		.cfi_def_cfa_offset 8
 2151              		.cfi_offset 5, -8
 2152 0e2a 89E5     		movl	%esp, %ebp
 2153              		.cfi_def_cfa_register 5
 2154 0e2c 83EC18   		subl	$24, %esp
 2155 0e2f C7442408 		movl	$16, 8(%esp)
 2155      10000000 
 2156 0e37 C7442404 		movl	$0, 4(%esp)
 2156      00000000 
 2157 0e3f 8B4508   		movl	8(%ebp), %eax
 2158 0e42 890424   		movl	%eax, (%esp)
 2159 0e45 E8000000 		call	_memset
 2159      00
 2160 0e4a C7442408 		movl	$16, 8(%esp)
 2160      10000000 
 2161 0e52 C7442404 		movl	$0, 4(%esp)
 2161      00000000 
 2162 0e5a 8B450C   		movl	12(%ebp), %eax
 2163 0e5d 890424   		movl	%eax, (%esp)
 2164 0e60 E8000000 		call	_memset
 2164      00
 2165 0e65 C7442408 		movl	$16, 8(%esp)
 2165      10000000 
 2166 0e6d C7442404 		movl	$0, 4(%esp)
 2166      00000000 
GAS LISTING asm80386_x.s 			page 47


 2167 0e75 8B4510   		movl	16(%ebp), %eax
 2168 0e78 890424   		movl	%eax, (%esp)
 2169 0e7b E8000000 		call	_memset
 2169      00
 2170 0e80 E87BF1FF 		call	_a_spskip
 2170      FF
 2171 0e85 A1801B0B 		movl	_a_linebufp, %eax
 2171      00
 2172 0e8a 0FB600   		movzbl	(%eax), %eax
 2173 0e8d 3C5B     		cmpb	$91, %al
 2174 0e8f 741E     		je	L142
 2175 0e91 C7442404 		movl	$767, 4(%esp)
 2175      FF020000 
 2176 0e99 C7042405 		movl	$5, (%esp)
 2176      000000
 2177 0ea0 E870F2FF 		call	_a_error_message
 2177      FF
 2178 0ea5 B8FFFFFF 		movl	$-1, %eax
 2178      FF
 2179 0eaa E9570200 		jmp	L143
 2179      00
 2180              	L142:
 2181 0eaf A1801B0B 		movl	_a_linebufp, %eax
 2181      00
 2182 0eb4 83C001   		addl	$1, %eax
 2183 0eb7 A3801B0B 		movl	%eax, _a_linebufp
 2183      00
 2184 0ebc 8B4508   		movl	8(%ebp), %eax
 2185 0ebf 890424   		movl	%eax, (%esp)
 2186 0ec2 E89EFDFF 		call	_a_get_regoperand
 2186      FF
 2187 0ec7 85C0     		testl	%eax, %eax
 2188 0ec9 755F     		jne	L144
 2189 0ecb 8B4508   		movl	8(%ebp), %eax
 2190 0ece 890424   		movl	%eax, (%esp)
 2191 0ed1 E83FFEFF 		call	_a_get_const_operand
 2191      FF
 2192 0ed6 85C0     		testl	%eax, %eax
 2193 0ed8 740A     		je	L145
 2194 0eda B8FFFFFF 		movl	$-1, %eax
 2194      FF
 2195 0edf E9220200 		jmp	L143
 2195      00
 2196              	L145:
 2197 0ee4 E817F1FF 		call	_a_spskip
 2197      FF
 2198 0ee9 A1801B0B 		movl	_a_linebufp, %eax
 2198      00
 2199 0eee 0FB600   		movzbl	(%eax), %eax
 2200 0ef1 3C5D     		cmpb	$93, %al
 2201 0ef3 741E     		je	L146
 2202 0ef5 C7442404 		movl	$777, 4(%esp)
 2202      09030000 
 2203 0efd C7042405 		movl	$5, (%esp)
 2203      000000
 2204 0f04 E80CF2FF 		call	_a_error_message
 2204      FF
GAS LISTING asm80386_x.s 			page 48


 2205 0f09 B8FFFFFF 		movl	$-1, %eax
 2205      FF
 2206 0f0e E9F30100 		jmp	L143
 2206      00
 2207              	L146:
 2208 0f13 A1801B0B 		movl	_a_linebufp, %eax
 2208      00
 2209 0f18 83C001   		addl	$1, %eax
 2210 0f1b A3801B0B 		movl	%eax, _a_linebufp
 2210      00
 2211 0f20 B8000000 		movl	$0, %eax
 2211      00
 2212 0f25 E9DC0100 		jmp	L143
 2212      00
 2213              	L144:
 2214 0f2a E8D1F0FF 		call	_a_spskip
 2214      FF
 2215 0f2f A1801B0B 		movl	_a_linebufp, %eax
 2215      00
 2216 0f34 0FB600   		movzbl	(%eax), %eax
 2217 0f37 3C5D     		cmpb	$93, %al
 2218 0f39 7517     		jne	L147
 2219 0f3b A1801B0B 		movl	_a_linebufp, %eax
 2219      00
 2220 0f40 83C001   		addl	$1, %eax
 2221 0f43 A3801B0B 		movl	%eax, _a_linebufp
 2221      00
 2222 0f48 B8000000 		movl	$0, %eax
 2222      00
 2223 0f4d E9B40100 		jmp	L143
 2223      00
 2224              	L147:
 2225 0f52 A1801B0B 		movl	_a_linebufp, %eax
 2225      00
 2226 0f57 0FB600   		movzbl	(%eax), %eax
 2227 0f5a 3C2B     		cmpb	$43, %al
 2228 0f5c 757F     		jne	L148
 2229 0f5e A1801B0B 		movl	_a_linebufp, %eax
 2229      00
 2230 0f63 83C001   		addl	$1, %eax
 2231 0f66 A3801B0B 		movl	%eax, _a_linebufp
 2231      00
 2232 0f6b 8B450C   		movl	12(%ebp), %eax
 2233 0f6e 890424   		movl	%eax, (%esp)
 2234 0f71 E8EFFCFF 		call	_a_get_regoperand
 2234      FF
 2235 0f76 85C0     		testl	%eax, %eax
 2236 0f78 0F85CA00 		jne	L149
 2236      0000
 2237 0f7e 8B450C   		movl	12(%ebp), %eax
 2238 0f81 890424   		movl	%eax, (%esp)
 2239 0f84 E88CFDFF 		call	_a_get_const_operand
 2239      FF
 2240 0f89 85C0     		testl	%eax, %eax
 2241 0f8b 740A     		je	L150
 2242 0f8d B8FFFFFF 		movl	$-1, %eax
 2242      FF
GAS LISTING asm80386_x.s 			page 49


 2243 0f92 E96F0100 		jmp	L143
 2243      00
 2244              	L150:
 2245 0f97 E864F0FF 		call	_a_spskip
 2245      FF
 2246 0f9c A1801B0B 		movl	_a_linebufp, %eax
 2246      00
 2247 0fa1 0FB600   		movzbl	(%eax), %eax
 2248 0fa4 3C5D     		cmpb	$93, %al
 2249 0fa6 741E     		je	L151
 2250 0fa8 C7442404 		movl	$797, 4(%esp)
 2250      1D030000 
 2251 0fb0 C7042405 		movl	$5, (%esp)
 2251      000000
 2252 0fb7 E859F1FF 		call	_a_error_message
 2252      FF
 2253 0fbc B8FFFFFF 		movl	$-1, %eax
 2253      FF
 2254 0fc1 E9400100 		jmp	L143
 2254      00
 2255              	L151:
 2256 0fc6 A1801B0B 		movl	_a_linebufp, %eax
 2256      00
 2257 0fcb 83C001   		addl	$1, %eax
 2258 0fce A3801B0B 		movl	%eax, _a_linebufp
 2258      00
 2259 0fd3 B8000000 		movl	$0, %eax
 2259      00
 2260 0fd8 E9290100 		jmp	L143
 2260      00
 2261              	L148:
 2262 0fdd A1801B0B 		movl	_a_linebufp, %eax
 2262      00
 2263 0fe2 0FB600   		movzbl	(%eax), %eax
 2264 0fe5 3C2D     		cmpb	$45, %al
 2265 0fe7 755F     		jne	L149
 2266 0fe9 8B450C   		movl	12(%ebp), %eax
 2267 0fec 890424   		movl	%eax, (%esp)
 2268 0fef E821FDFF 		call	_a_get_const_operand
 2268      FF
 2269 0ff4 85C0     		testl	%eax, %eax
 2270 0ff6 740A     		je	L152
 2271 0ff8 B8FFFFFF 		movl	$-1, %eax
 2271      FF
 2272 0ffd E9040100 		jmp	L143
 2272      00
 2273              	L152:
 2274 1002 E8F9EFFF 		call	_a_spskip
 2274      FF
 2275 1007 A1801B0B 		movl	_a_linebufp, %eax
 2275      00
 2276 100c 0FB600   		movzbl	(%eax), %eax
 2277 100f 3C5D     		cmpb	$93, %al
 2278 1011 741E     		je	L153
 2279 1013 C7442404 		movl	$810, 4(%esp)
 2279      2A030000 
 2280 101b C7042405 		movl	$5, (%esp)
GAS LISTING asm80386_x.s 			page 50


 2280      000000
 2281 1022 E8EEF0FF 		call	_a_error_message
 2281      FF
 2282 1027 B8FFFFFF 		movl	$-1, %eax
 2282      FF
 2283 102c E9D50000 		jmp	L143
 2283      00
 2284              	L153:
 2285 1031 A1801B0B 		movl	_a_linebufp, %eax
 2285      00
 2286 1036 83C001   		addl	$1, %eax
 2287 1039 A3801B0B 		movl	%eax, _a_linebufp
 2287      00
 2288 103e B8000000 		movl	$0, %eax
 2288      00
 2289 1043 E9BE0000 		jmp	L143
 2289      00
 2290              	L149:
 2291 1048 E8B3EFFF 		call	_a_spskip
 2291      FF
 2292 104d A1801B0B 		movl	_a_linebufp, %eax
 2292      00
 2293 1052 0FB600   		movzbl	(%eax), %eax
 2294 1055 3C5D     		cmpb	$93, %al
 2295 1057 7517     		jne	L154
 2296 1059 A1801B0B 		movl	_a_linebufp, %eax
 2296      00
 2297 105e 83C001   		addl	$1, %eax
 2298 1061 A3801B0B 		movl	%eax, _a_linebufp
 2298      00
 2299 1066 B8000000 		movl	$0, %eax
 2299      00
 2300 106b E9960000 		jmp	L143
 2300      00
 2301              	L154:
 2302 1070 A1801B0B 		movl	_a_linebufp, %eax
 2302      00
 2303 1075 0FB600   		movzbl	(%eax), %eax
 2304 1078 3C2B     		cmpb	$43, %al
 2305 107a 750F     		jne	L155
 2306 107c A1801B0B 		movl	_a_linebufp, %eax
 2306      00
 2307 1081 83C001   		addl	$1, %eax
 2308 1084 A3801B0B 		movl	%eax, _a_linebufp
 2308      00
 2309 1089 EB27     		jmp	L156
 2310              	L155:
 2311 108b A1801B0B 		movl	_a_linebufp, %eax
 2311      00
 2312 1090 0FB600   		movzbl	(%eax), %eax
 2313 1093 3C2D     		cmpb	$45, %al
 2314 1095 741B     		je	L156
 2315 1097 C7442404 		movl	$828, 4(%esp)
 2315      3C030000 
 2316 109f C7042405 		movl	$5, (%esp)
 2316      000000
 2317 10a6 E86AF0FF 		call	_a_error_message
GAS LISTING asm80386_x.s 			page 51


 2317      FF
 2318 10ab B8FFFFFF 		movl	$-1, %eax
 2318      FF
 2319 10b0 EB54     		jmp	L143
 2320              	L156:
 2321 10b2 8B4510   		movl	16(%ebp), %eax
 2322 10b5 890424   		movl	%eax, (%esp)
 2323 10b8 E858FCFF 		call	_a_get_const_operand
 2323      FF
 2324 10bd 85C0     		testl	%eax, %eax
 2325 10bf 7407     		je	L157
 2326 10c1 B8FFFFFF 		movl	$-1, %eax
 2326      FF
 2327 10c6 EB3E     		jmp	L143
 2328              	L157:
 2329 10c8 E833EFFF 		call	_a_spskip
 2329      FF
 2330 10cd A1801B0B 		movl	_a_linebufp, %eax
 2330      00
 2331 10d2 0FB600   		movzbl	(%eax), %eax
 2332 10d5 3C5D     		cmpb	$93, %al
 2333 10d7 741B     		je	L158
 2334 10d9 C7442404 		movl	$836, 4(%esp)
 2334      44030000 
 2335 10e1 C7042405 		movl	$5, (%esp)
 2335      000000
 2336 10e8 E828F0FF 		call	_a_error_message
 2336      FF
 2337 10ed B8FFFFFF 		movl	$-1, %eax
 2337      FF
 2338 10f2 EB12     		jmp	L143
 2339              	L158:
 2340 10f4 A1801B0B 		movl	_a_linebufp, %eax
 2340      00
 2341 10f9 83C001   		addl	$1, %eax
 2342 10fc A3801B0B 		movl	%eax, _a_linebufp
 2342      00
 2343 1101 B8000000 		movl	$0, %eax
 2343      00
 2344              	L143:
 2345 1106 C9       		leave
 2346              		.cfi_restore 5
 2347              		.cfi_def_cfa 4, 4
 2348 1107 C3       		ret
 2349              		.cfi_endproc
 2350              	LFE17:
 2351              		.globl	_a_make_EA_reg
 2352              		.def	_a_make_EA_reg;	.scl	2;	.type	32;	.endef
 2353              	_a_make_EA_reg:
 2354              	LFB18:
 2355              		.cfi_startproc
 2356 1108 55       		pushl	%ebp
 2357              		.cfi_def_cfa_offset 8
 2358              		.cfi_offset 5, -8
 2359 1109 89E5     		movl	%esp, %ebp
 2360              		.cfi_def_cfa_register 5
 2361 110b 83EC18   		subl	$24, %esp
GAS LISTING asm80386_x.s 			page 52


 2362 110e 8B450C   		movl	12(%ebp), %eax
 2363 1111 8B00     		movl	(%eax), %eax
 2364 1113 83F803   		cmpl	$3, %eax
 2365 1116 7561     		jne	L160
 2366 1118 8B450C   		movl	12(%ebp), %eax
 2367 111b 8B4004   		movl	4(%eax), %eax
 2368 111e 83F804   		cmpl	$4, %eax
 2369 1121 7519     		jne	L161
 2370 1123 8B4508   		movl	8(%ebp), %eax
 2371 1126 C7001700 		movl	$23, (%eax)
 2371      0000
 2372 112c 8B4508   		movl	8(%ebp), %eax
 2373 112f C6400C04 		movb	$4, 12(%eax)
 2374 1133 8B4508   		movl	8(%ebp), %eax
 2375 1136 C6400D24 		movb	$36, 13(%eax)
 2376 113a EB58     		jmp	L162
 2377              	L161:
 2378 113c 8B450C   		movl	12(%ebp), %eax
 2379 113f 8B4004   		movl	4(%eax), %eax
 2380 1142 83F805   		cmpl	$5, %eax
 2381 1145 7519     		jne	L163
 2382 1147 8B4508   		movl	8(%ebp), %eax
 2383 114a C7001700 		movl	$23, (%eax)
 2383      0000
 2384 1150 8B4508   		movl	8(%ebp), %eax
 2385 1153 C6400C45 		movb	$69, 12(%eax)
 2386 1157 8B4508   		movl	8(%ebp), %eax
 2387 115a C6400D00 		movb	$0, 13(%eax)
 2388 115e EB34     		jmp	L162
 2389              	L163:
 2390 1160 8B4508   		movl	8(%ebp), %eax
 2391 1163 C7001400 		movl	$20, (%eax)
 2391      0000
 2392 1169 8B450C   		movl	12(%ebp), %eax
 2393 116c 8B4004   		movl	4(%eax), %eax
 2394 116f 89C2     		movl	%eax, %edx
 2395 1171 8B4508   		movl	8(%ebp), %eax
 2396 1174 88500C   		movb	%dl, 12(%eax)
 2397 1177 EB1B     		jmp	L162
 2398              	L160:
 2399 1179 C7442404 		movl	$862, 4(%esp)
 2399      5E030000 
 2400 1181 C7042405 		movl	$5, (%esp)
 2400      000000
 2401 1188 E888EFFF 		call	_a_error_message
 2401      FF
 2402 118d B8FFFFFF 		movl	$-1, %eax
 2402      FF
 2403 1192 EB05     		jmp	L164
 2404              	L162:
 2405 1194 B8000000 		movl	$0, %eax
 2405      00
 2406              	L164:
 2407 1199 C9       		leave
 2408              		.cfi_restore 5
 2409              		.cfi_def_cfa 4, 4
 2410 119a C3       		ret
GAS LISTING asm80386_x.s 			page 53


 2411              		.cfi_endproc
 2412              	LFE18:
 2413              		.globl	_a_make_EA_reg_disp
 2414              		.def	_a_make_EA_reg_disp;	.scl	2;	.type	32;	.endef
 2415              	_a_make_EA_reg_disp:
 2416              	LFB19:
 2417              		.cfi_startproc
 2418 119b 55       		pushl	%ebp
 2419              		.cfi_def_cfa_offset 8
 2420              		.cfi_offset 5, -8
 2421 119c 89E5     		movl	%esp, %ebp
 2422              		.cfi_def_cfa_register 5
 2423 119e 83EC18   		subl	$24, %esp
 2424 11a1 8B450C   		movl	12(%ebp), %eax
 2425 11a4 8B00     		movl	(%eax), %eax
 2426 11a6 83F803   		cmpl	$3, %eax
 2427 11a9 0F85E800 		jne	L166
 2427      0000
 2428 11af 8B4510   		movl	16(%ebp), %eax
 2429 11b2 8B00     		movl	(%eax), %eax
 2430 11b4 83F80A   		cmpl	$10, %eax
 2431 11b7 7566     		jne	L167
 2432 11b9 8B450C   		movl	12(%ebp), %eax
 2433 11bc 8B4004   		movl	4(%eax), %eax
 2434 11bf 83F804   		cmpl	$4, %eax
 2435 11c2 752D     		jne	L168
 2436 11c4 8B4508   		movl	8(%ebp), %eax
 2437 11c7 C7001800 		movl	$24, (%eax)
 2437      0000
 2438 11cd 8B4508   		movl	8(%ebp), %eax
 2439 11d0 C6400C44 		movb	$68, 12(%eax)
 2440 11d4 8B4508   		movl	8(%ebp), %eax
 2441 11d7 C6400D24 		movb	$36, 13(%eax)
 2442 11db 8B4510   		movl	16(%ebp), %eax
 2443 11de 8B5008   		movl	8(%eax), %edx
 2444 11e1 8B4508   		movl	8(%ebp), %eax
 2445 11e4 895008   		movl	%edx, 8(%eax)
 2446 11e7 B8000000 		movl	$0, %eax
 2446      00
 2447 11ec E9C60000 		jmp	L169
 2447      00
 2448              	L168:
 2449 11f1 8B4508   		movl	8(%ebp), %eax
 2450 11f4 C7001500 		movl	$21, (%eax)
 2450      0000
 2451 11fa 8B450C   		movl	12(%ebp), %eax
 2452 11fd 8B4004   		movl	4(%eax), %eax
 2453 1200 8D5040   		leal	64(%eax), %edx
 2454 1203 8B4508   		movl	8(%ebp), %eax
 2455 1206 88500C   		movb	%dl, 12(%eax)
 2456 1209 8B4510   		movl	16(%ebp), %eax
 2457 120c 8B5008   		movl	8(%eax), %edx
 2458 120f 8B4508   		movl	8(%ebp), %eax
 2459 1212 895008   		movl	%edx, 8(%eax)
 2460 1215 B8000000 		movl	$0, %eax
 2460      00
 2461 121a E9980000 		jmp	L169
GAS LISTING asm80386_x.s 			page 54


 2461      00
 2462              	L167:
 2463 121f 8B4510   		movl	16(%ebp), %eax
 2464 1222 8B00     		movl	(%eax), %eax
 2465 1224 83F80B   		cmpl	$11, %eax
 2466 1227 7509     		jne	L170
 2467 1229 8B4510   		movl	16(%ebp), %eax
 2468 122c C7000C00 		movl	$12, (%eax)
 2468      0000
 2469              	L170:
 2470 1232 8B4510   		movl	16(%ebp), %eax
 2471 1235 8B00     		movl	(%eax), %eax
 2472 1237 83F80C   		cmpl	$12, %eax
 2473 123a 7576     		jne	L171
 2474 123c 8B450C   		movl	12(%ebp), %eax
 2475 123f 8B4004   		movl	4(%eax), %eax
 2476 1242 83F804   		cmpl	$4, %eax
 2477 1245 752A     		jne	L172
 2478 1247 8B4508   		movl	8(%ebp), %eax
 2479 124a C7001900 		movl	$25, (%eax)
 2479      0000
 2480 1250 8B4508   		movl	8(%ebp), %eax
 2481 1253 C6400C84 		movb	$-124, 12(%eax)
 2482 1257 8B4508   		movl	8(%ebp), %eax
 2483 125a C6400D24 		movb	$36, 13(%eax)
 2484 125e 8B4510   		movl	16(%ebp), %eax
 2485 1261 8B5008   		movl	8(%eax), %edx
 2486 1264 8B4508   		movl	8(%ebp), %eax
 2487 1267 895008   		movl	%edx, 8(%eax)
 2488 126a B8000000 		movl	$0, %eax
 2488      00
 2489 126f EB46     		jmp	L169
 2490              	L172:
 2491 1271 8B4508   		movl	8(%ebp), %eax
 2492 1274 C7001600 		movl	$22, (%eax)
 2492      0000
 2493 127a 8B450C   		movl	12(%ebp), %eax
 2494 127d 8B4004   		movl	4(%eax), %eax
 2495 1280 8D5080   		leal	-128(%eax), %edx
 2496 1283 8B4508   		movl	8(%ebp), %eax
 2497 1286 88500C   		movb	%dl, 12(%eax)
 2498 1289 8B4510   		movl	16(%ebp), %eax
 2499 128c 8B5008   		movl	8(%eax), %edx
 2500 128f 8B4508   		movl	8(%ebp), %eax
 2501 1292 895008   		movl	%edx, 8(%eax)
 2502 1295 EB1B     		jmp	L171
 2503              	L166:
 2504 1297 C7442404 		movl	$905, 4(%esp)
 2504      89030000 
 2505 129f C7042405 		movl	$5, (%esp)
 2505      000000
 2506 12a6 E86AEEFF 		call	_a_error_message
 2506      FF
 2507 12ab B8FFFFFF 		movl	$-1, %eax
 2507      FF
 2508 12b0 EB05     		jmp	L169
 2509              	L171:
GAS LISTING asm80386_x.s 			page 55


 2510 12b2 B8000000 		movl	$0, %eax
 2510      00
 2511              	L169:
 2512 12b7 C9       		leave
 2513              		.cfi_restore 5
 2514              		.cfi_def_cfa 4, 4
 2515 12b8 C3       		ret
 2516              		.cfi_endproc
 2517              	LFE19:
 2518              		.globl	_a_make_EA_reg_reg
 2519              		.def	_a_make_EA_reg_reg;	.scl	2;	.type	32;	.endef
 2520              	_a_make_EA_reg_reg:
 2521              	LFB20:
 2522              		.cfi_startproc
 2523 12b9 55       		pushl	%ebp
 2524              		.cfi_def_cfa_offset 8
 2525              		.cfi_offset 5, -8
 2526 12ba 89E5     		movl	%esp, %ebp
 2527              		.cfi_def_cfa_register 5
 2528 12bc 83EC28   		subl	$40, %esp
 2529 12bf 8B450C   		movl	12(%ebp), %eax
 2530 12c2 8B00     		movl	(%eax), %eax
 2531 12c4 83F803   		cmpl	$3, %eax
 2532 12c7 0F85F300 		jne	L174
 2532      0000
 2533 12cd 8B4510   		movl	16(%ebp), %eax
 2534 12d0 8B00     		movl	(%eax), %eax
 2535 12d2 83F803   		cmpl	$3, %eax
 2536 12d5 0F85E500 		jne	L174
 2536      0000
 2537 12db 8B450C   		movl	12(%ebp), %eax
 2538 12de 8B4004   		movl	4(%eax), %eax
 2539 12e1 83F804   		cmpl	$4, %eax
 2540 12e4 7529     		jne	L175
 2541 12e6 8B4510   		movl	16(%ebp), %eax
 2542 12e9 8B4004   		movl	4(%eax), %eax
 2543 12ec 83F804   		cmpl	$4, %eax
 2544 12ef 751E     		jne	L175
 2545 12f1 C7442404 		movl	$917, 4(%esp)
 2545      95030000 
 2546 12f9 C7042405 		movl	$5, (%esp)
 2546      000000
 2547 1300 E810EEFF 		call	_a_error_message
 2547      FF
 2548 1305 B8FFFFFF 		movl	$-1, %eax
 2548      FF
 2549 130a E9D10000 		jmp	L176
 2549      00
 2550              	L175:
 2551 130f 8B4510   		movl	16(%ebp), %eax
 2552 1312 8B4004   		movl	4(%eax), %eax
 2553 1315 83F804   		cmpl	$4, %eax
 2554 1318 751E     		jne	L177
 2555 131a 8B450C   		movl	12(%ebp), %eax
 2556 131d 8B4004   		movl	4(%eax), %eax
 2557 1320 8945F4   		movl	%eax, -12(%ebp)
 2558 1323 8B4510   		movl	16(%ebp), %eax
GAS LISTING asm80386_x.s 			page 56


 2559 1326 8B5004   		movl	4(%eax), %edx
 2560 1329 8B450C   		movl	12(%ebp), %eax
 2561 132c 895004   		movl	%edx, 4(%eax)
 2562 132f 8B4510   		movl	16(%ebp), %eax
 2563 1332 8B55F4   		movl	-12(%ebp), %edx
 2564 1335 895004   		movl	%edx, 4(%eax)
 2565              	L177:
 2566 1338 8B450C   		movl	12(%ebp), %eax
 2567 133b 8B4004   		movl	4(%eax), %eax
 2568 133e 83F805   		cmpl	$5, %eax
 2569 1341 7552     		jne	L178
 2570 1343 8B4510   		movl	16(%ebp), %eax
 2571 1346 8B4004   		movl	4(%eax), %eax
 2572 1349 83F804   		cmpl	$4, %eax
 2573 134c 7519     		jne	L179
 2574 134e 8B4508   		movl	8(%ebp), %eax
 2575 1351 C7001700 		movl	$23, (%eax)
 2575      0000
 2576 1357 8B4508   		movl	8(%ebp), %eax
 2577 135a C6400C04 		movb	$4, 12(%eax)
 2578 135e 8B4508   		movl	8(%ebp), %eax
 2579 1361 C6400D2C 		movb	$44, 13(%eax)
 2580 1365 EB74     		jmp	L181
 2581              	L179:
 2582 1367 8B4508   		movl	8(%ebp), %eax
 2583 136a C7001800 		movl	$24, (%eax)
 2583      0000
 2584 1370 8B4508   		movl	8(%ebp), %eax
 2585 1373 C6400C44 		movb	$68, 12(%eax)
 2586 1377 8B4510   		movl	16(%ebp), %eax
 2587 137a 8B4004   		movl	4(%eax), %eax
 2588 137d C1E003   		sall	$3, %eax
 2589 1380 8D5005   		leal	5(%eax), %edx
 2590 1383 8B4508   		movl	8(%ebp), %eax
 2591 1386 88500D   		movb	%dl, 13(%eax)
 2592 1389 8B4508   		movl	8(%ebp), %eax
 2593 138c C7400800 		movl	$0, 8(%eax)
 2593      000000
 2594 1393 EB46     		jmp	L181
 2595              	L178:
 2596 1395 8B4508   		movl	8(%ebp), %eax
 2597 1398 C7001700 		movl	$23, (%eax)
 2597      0000
 2598 139e 8B4508   		movl	8(%ebp), %eax
 2599 13a1 C6400C04 		movb	$4, 12(%eax)
 2600 13a5 8B450C   		movl	12(%ebp), %eax
 2601 13a8 8B4004   		movl	4(%eax), %eax
 2602 13ab 89C2     		movl	%eax, %edx
 2603 13ad 8B4510   		movl	16(%ebp), %eax
 2604 13b0 8B4004   		movl	4(%eax), %eax
 2605 13b3 C1E003   		sall	$3, %eax
 2606 13b6 01C2     		addl	%eax, %edx
 2607 13b8 8B4508   		movl	8(%ebp), %eax
 2608 13bb 88500D   		movb	%dl, 13(%eax)
 2609 13be EB1B     		jmp	L181
 2610              	L174:
 2611 13c0 C7442404 		movl	$945, 4(%esp)
GAS LISTING asm80386_x.s 			page 57


 2611      B1030000 
 2612 13c8 C7042405 		movl	$5, (%esp)
 2612      000000
 2613 13cf E841EDFF 		call	_a_error_message
 2613      FF
 2614 13d4 B8FFFFFF 		movl	$-1, %eax
 2614      FF
 2615 13d9 EB05     		jmp	L176
 2616              	L181:
 2617 13db B8000000 		movl	$0, %eax
 2617      00
 2618              	L176:
 2619 13e0 C9       		leave
 2620              		.cfi_restore 5
 2621              		.cfi_def_cfa 4, 4
 2622 13e1 C3       		ret
 2623              		.cfi_endproc
 2624              	LFE20:
 2625              		.globl	_a_make_EA_reg_reg_disp
 2626              		.def	_a_make_EA_reg_reg_disp;	.scl	2;	.type	32;	.endef
 2627              	_a_make_EA_reg_reg_disp:
 2628              	LFB21:
 2629              		.cfi_startproc
 2630 13e2 55       		pushl	%ebp
 2631              		.cfi_def_cfa_offset 8
 2632              		.cfi_offset 5, -8
 2633 13e3 89E5     		movl	%esp, %ebp
 2634              		.cfi_def_cfa_register 5
 2635 13e5 83EC28   		subl	$40, %esp
 2636 13e8 8B450C   		movl	12(%ebp), %eax
 2637 13eb 8B00     		movl	(%eax), %eax
 2638 13ed 83F803   		cmpl	$3, %eax
 2639 13f0 0F851B01 		jne	L183
 2639      0000
 2640 13f6 8B4510   		movl	16(%ebp), %eax
 2641 13f9 8B00     		movl	(%eax), %eax
 2642 13fb 83F803   		cmpl	$3, %eax
 2643 13fe 0F850D01 		jne	L183
 2643      0000
 2644 1404 8B450C   		movl	12(%ebp), %eax
 2645 1407 8B4004   		movl	4(%eax), %eax
 2646 140a 83F804   		cmpl	$4, %eax
 2647 140d 7529     		jne	L184
 2648 140f 8B4510   		movl	16(%ebp), %eax
 2649 1412 8B4004   		movl	4(%eax), %eax
 2650 1415 83F804   		cmpl	$4, %eax
 2651 1418 751E     		jne	L184
 2652 141a C7442404 		movl	$957, 4(%esp)
 2652      BD030000 
 2653 1422 C7042405 		movl	$5, (%esp)
 2653      000000
 2654 1429 E8E7ECFF 		call	_a_error_message
 2654      FF
 2655 142e B8FFFFFF 		movl	$-1, %eax
 2655      FF
 2656 1433 E9F90000 		jmp	L185
 2656      00
GAS LISTING asm80386_x.s 			page 58


 2657              	L184:
 2658 1438 8B4510   		movl	16(%ebp), %eax
 2659 143b 8B4004   		movl	4(%eax), %eax
 2660 143e 83F804   		cmpl	$4, %eax
 2661 1441 751E     		jne	L186
 2662 1443 8B450C   		movl	12(%ebp), %eax
 2663 1446 8B4004   		movl	4(%eax), %eax
 2664 1449 8945F4   		movl	%eax, -12(%ebp)
 2665 144c 8B4510   		movl	16(%ebp), %eax
 2666 144f 8B5004   		movl	4(%eax), %edx
 2667 1452 8B450C   		movl	12(%ebp), %eax
 2668 1455 895004   		movl	%edx, 4(%eax)
 2669 1458 8B4510   		movl	16(%ebp), %eax
 2670 145b 8B55F4   		movl	-12(%ebp), %edx
 2671 145e 895004   		movl	%edx, 4(%eax)
 2672              	L186:
 2673 1461 8B4514   		movl	20(%ebp), %eax
 2674 1464 8B00     		movl	(%eax), %eax
 2675 1466 83F80B   		cmpl	$11, %eax
 2676 1469 7509     		jne	L187
 2677 146b 8B4514   		movl	20(%ebp), %eax
 2678 146e C7000C00 		movl	$12, (%eax)
 2678      0000
 2679              	L187:
 2680 1474 8B4514   		movl	20(%ebp), %eax
 2681 1477 8B00     		movl	(%eax), %eax
 2682 1479 83F80A   		cmpl	$10, %eax
 2683 147c 7537     		jne	L188
 2684 147e 8B4508   		movl	8(%ebp), %eax
 2685 1481 C7001800 		movl	$24, (%eax)
 2685      0000
 2686 1487 8B4508   		movl	8(%ebp), %eax
 2687 148a C6400C44 		movb	$68, 12(%eax)
 2688 148e 8B450C   		movl	12(%ebp), %eax
 2689 1491 8B4004   		movl	4(%eax), %eax
 2690 1494 89C2     		movl	%eax, %edx
 2691 1496 8B4510   		movl	16(%ebp), %eax
 2692 1499 8B4004   		movl	4(%eax), %eax
 2693 149c C1E003   		sall	$3, %eax
 2694 149f 01C2     		addl	%eax, %edx
 2695 14a1 8B4508   		movl	8(%ebp), %eax
 2696 14a4 88500D   		movb	%dl, 13(%eax)
 2697 14a7 8B4514   		movl	20(%ebp), %eax
 2698 14aa 8B5008   		movl	8(%eax), %edx
 2699 14ad 8B4508   		movl	8(%ebp), %eax
 2700 14b0 895008   		movl	%edx, 8(%eax)
 2701 14b3 EB77     		jmp	L191
 2702              	L188:
 2703 14b5 8B4514   		movl	20(%ebp), %eax
 2704 14b8 8B00     		movl	(%eax), %eax
 2705 14ba 83F80C   		cmpl	$12, %eax
 2706 14bd 7537     		jne	L190
 2707 14bf 8B4508   		movl	8(%ebp), %eax
 2708 14c2 C7001900 		movl	$25, (%eax)
 2708      0000
 2709 14c8 8B4508   		movl	8(%ebp), %eax
 2710 14cb C6400C84 		movb	$-124, 12(%eax)
GAS LISTING asm80386_x.s 			page 59


 2711 14cf 8B450C   		movl	12(%ebp), %eax
 2712 14d2 8B4004   		movl	4(%eax), %eax
 2713 14d5 89C2     		movl	%eax, %edx
 2714 14d7 8B4510   		movl	16(%ebp), %eax
 2715 14da 8B4004   		movl	4(%eax), %eax
 2716 14dd C1E003   		sall	$3, %eax
 2717 14e0 01C2     		addl	%eax, %edx
 2718 14e2 8B4508   		movl	8(%ebp), %eax
 2719 14e5 88500D   		movb	%dl, 13(%eax)
 2720 14e8 8B4514   		movl	20(%ebp), %eax
 2721 14eb 8B5008   		movl	8(%eax), %edx
 2722 14ee 8B4508   		movl	8(%ebp), %eax
 2723 14f1 895008   		movl	%edx, 8(%eax)
 2724 14f4 EB36     		jmp	L191
 2725              	L190:
 2726 14f6 C7442404 		movl	$981, 4(%esp)
 2726      D5030000 
 2727 14fe C7042405 		movl	$5, (%esp)
 2727      000000
 2728 1505 E80BECFF 		call	_a_error_message
 2728      FF
 2729 150a B8FFFFFF 		movl	$-1, %eax
 2729      FF
 2730 150f EB20     		jmp	L185
 2731              	L183:
 2732 1511 C7442404 		movl	$986, 4(%esp)
 2732      DA030000 
 2733 1519 C7042405 		movl	$5, (%esp)
 2733      000000
 2734 1520 E8F0EBFF 		call	_a_error_message
 2734      FF
 2735 1525 B8FFFFFF 		movl	$-1, %eax
 2735      FF
 2736 152a EB05     		jmp	L185
 2737              	L191:
 2738 152c B8000000 		movl	$0, %eax
 2738      00
 2739              	L185:
 2740 1531 C9       		leave
 2741              		.cfi_restore 5
 2742              		.cfi_def_cfa 4, 4
 2743 1532 C3       		ret
 2744              		.cfi_endproc
 2745              	LFE21:
 2746              		.globl	_a_make_EA
 2747              		.def	_a_make_EA;	.scl	2;	.type	32;	.endef
 2748              	_a_make_EA:
 2749              	LFB22:
 2750              		.cfi_startproc
 2751 1533 55       		pushl	%ebp
 2752              		.cfi_def_cfa_offset 8
 2753              		.cfi_offset 5, -8
 2754 1534 89E5     		movl	%esp, %ebp
 2755              		.cfi_def_cfa_register 5
 2756 1536 83EC18   		subl	$24, %esp
 2757 1539 C7442408 		movl	$16, 8(%esp)
 2757      10000000 
GAS LISTING asm80386_x.s 			page 60


 2758 1541 C7442404 		movl	$0, 4(%esp)
 2758      00000000 
 2759 1549 8B4508   		movl	8(%ebp), %eax
 2760 154c 890424   		movl	%eax, (%esp)
 2761 154f E8000000 		call	_memset
 2761      00
 2762 1554 8B450C   		movl	12(%ebp), %eax
 2763 1557 8B00     		movl	(%eax), %eax
 2764 1559 83F809   		cmpl	$9, %eax
 2765 155c 7E2B     		jle	L193
 2766 155e 8B450C   		movl	12(%ebp), %eax
 2767 1561 8B00     		movl	(%eax), %eax
 2768 1563 83F80C   		cmpl	$12, %eax
 2769 1566 7F21     		jg	L193
 2770 1568 8B4508   		movl	8(%ebp), %eax
 2771 156b C7001600 		movl	$22, (%eax)
 2771      0000
 2772 1571 8B4508   		movl	8(%ebp), %eax
 2773 1574 C6400C05 		movb	$5, 12(%eax)
 2774 1578 8B450C   		movl	12(%ebp), %eax
 2775 157b 8B5008   		movl	8(%eax), %edx
 2776 157e 8B4508   		movl	8(%ebp), %eax
 2777 1581 895008   		movl	%edx, 8(%eax)
 2778 1584 E96C0100 		jmp	L194
 2778      00
 2779              	L193:
 2780 1589 8B450C   		movl	12(%ebp), %eax
 2781 158c 8B00     		movl	(%eax), %eax
 2782 158e 85C0     		testl	%eax, %eax
 2783 1590 0F8E4301 		jle	L195
 2783      0000
 2784 1596 8B450C   		movl	12(%ebp), %eax
 2785 1599 8B00     		movl	(%eax), %eax
 2786 159b 83F803   		cmpl	$3, %eax
 2787 159e 0F8F3501 		jg	L195
 2787      0000
 2788 15a4 8B4510   		movl	16(%ebp), %eax
 2789 15a7 8B00     		movl	(%eax), %eax
 2790 15a9 85C0     		testl	%eax, %eax
 2791 15ab 7524     		jne	L196
 2792 15ad 8B450C   		movl	12(%ebp), %eax
 2793 15b0 89442404 		movl	%eax, 4(%esp)
 2794 15b4 8B4508   		movl	8(%ebp), %eax
 2795 15b7 890424   		movl	%eax, (%esp)
 2796 15ba E849FBFF 		call	_a_make_EA_reg
 2796      FF
 2797 15bf 85C0     		testl	%eax, %eax
 2798 15c1 0F842D01 		je	L206
 2798      0000
 2799 15c7 B8FFFFFF 		movl	$-1, %eax
 2799      FF
 2800 15cc E9290100 		jmp	L198
 2800      00
 2801              	L196:
 2802 15d1 8B4510   		movl	16(%ebp), %eax
 2803 15d4 8B00     		movl	(%eax), %eax
 2804 15d6 83F809   		cmpl	$9, %eax
GAS LISTING asm80386_x.s 			page 61


 2805 15d9 7E35     		jle	L199
 2806 15db 8B4510   		movl	16(%ebp), %eax
 2807 15de 8B00     		movl	(%eax), %eax
 2808 15e0 83F80C   		cmpl	$12, %eax
 2809 15e3 7F2B     		jg	L199
 2810 15e5 8B4510   		movl	16(%ebp), %eax
 2811 15e8 89442408 		movl	%eax, 8(%esp)
 2812 15ec 8B450C   		movl	12(%ebp), %eax
 2813 15ef 89442404 		movl	%eax, 4(%esp)
 2814 15f3 8B4508   		movl	8(%ebp), %eax
 2815 15f6 890424   		movl	%eax, (%esp)
 2816 15f9 E89DFBFF 		call	_a_make_EA_reg_disp
 2816      FF
 2817 15fe 85C0     		testl	%eax, %eax
 2818 1600 0F84D100 		je	L197
 2818      0000
 2819 1606 B8FFFFFF 		movl	$-1, %eax
 2819      FF
 2820 160b E9EA0000 		jmp	L198
 2820      00
 2821              	L199:
 2822 1610 8B4510   		movl	16(%ebp), %eax
 2823 1613 8B00     		movl	(%eax), %eax
 2824 1615 85C0     		testl	%eax, %eax
 2825 1617 0F8E9E00 		jle	L201
 2825      0000
 2826 161d 8B4510   		movl	16(%ebp), %eax
 2827 1620 8B00     		movl	(%eax), %eax
 2828 1622 83F803   		cmpl	$3, %eax
 2829 1625 0F8F9000 		jg	L201
 2829      0000
 2830 162b 8B4514   		movl	20(%ebp), %eax
 2831 162e 8B00     		movl	(%eax), %eax
 2832 1630 85C0     		testl	%eax, %eax
 2833 1632 752B     		jne	L202
 2834 1634 8B4510   		movl	16(%ebp), %eax
 2835 1637 89442408 		movl	%eax, 8(%esp)
 2836 163b 8B450C   		movl	12(%ebp), %eax
 2837 163e 89442404 		movl	%eax, 4(%esp)
 2838 1642 8B4508   		movl	8(%ebp), %eax
 2839 1645 890424   		movl	%eax, (%esp)
 2840 1648 E86CFCFF 		call	_a_make_EA_reg_reg
 2840      FF
 2841 164d 85C0     		testl	%eax, %eax
 2842 164f 0F848100 		je	L207
 2842      0000
 2843 1655 B8FFFFFF 		movl	$-1, %eax
 2843      FF
 2844 165a E99B0000 		jmp	L198
 2844      00
 2845              	L202:
 2846 165f 8B4514   		movl	20(%ebp), %eax
 2847 1662 8B00     		movl	(%eax), %eax
 2848 1664 83F809   		cmpl	$9, %eax
 2849 1667 7E35     		jle	L204
 2850 1669 8B4514   		movl	20(%ebp), %eax
 2851 166c 8B00     		movl	(%eax), %eax
GAS LISTING asm80386_x.s 			page 62


 2852 166e 83F80C   		cmpl	$12, %eax
 2853 1671 7F2B     		jg	L204
 2854 1673 8B4514   		movl	20(%ebp), %eax
 2855 1676 8944240C 		movl	%eax, 12(%esp)
 2856 167a 8B4510   		movl	16(%ebp), %eax
 2857 167d 89442408 		movl	%eax, 8(%esp)
 2858 1681 8B450C   		movl	12(%ebp), %eax
 2859 1684 89442404 		movl	%eax, 4(%esp)
 2860 1688 8B4508   		movl	8(%ebp), %eax
 2861 168b 890424   		movl	%eax, (%esp)
 2862 168e E84FFDFF 		call	_a_make_EA_reg_reg_disp
 2862      FF
 2863 1693 85C0     		testl	%eax, %eax
 2864 1695 7422     		je	L203
 2865 1697 B8FFFFFF 		movl	$-1, %eax
 2865      FF
 2866 169c EB5C     		jmp	L198
 2867              	L204:
 2868 169e C7442404 		movl	$1023, 4(%esp)
 2868      FF030000 
 2869 16a6 C7042405 		movl	$5, (%esp)
 2869      000000
 2870 16ad E863EAFF 		call	_a_error_message
 2870      FF
 2871 16b2 B8FFFFFF 		movl	$-1, %eax
 2871      FF
 2872 16b7 EB41     		jmp	L198
 2873              	L203:
 2874 16b9 EB1B     		jmp	L207
 2875              	L201:
 2876 16bb C7442404 		movl	$1028, 4(%esp)
 2876      04040000 
 2877 16c3 C7042405 		movl	$5, (%esp)
 2877      000000
 2878 16ca E846EAFF 		call	_a_error_message
 2878      FF
 2879 16cf B8FFFFFF 		movl	$-1, %eax
 2879      FF
 2880 16d4 EB24     		jmp	L198
 2881              	L207:
 2882 16d6 90       		nop
 2883              	L197:
 2884 16d7 EB1B     		jmp	L206
 2885              	L195:
 2886 16d9 C7442404 		movl	$1033, 4(%esp)
 2886      09040000 
 2887 16e1 C7042405 		movl	$5, (%esp)
 2887      000000
 2888 16e8 E828EAFF 		call	_a_error_message
 2888      FF
 2889 16ed B8FFFFFF 		movl	$-1, %eax
 2889      FF
 2890 16f2 EB06     		jmp	L198
 2891              	L206:
 2892 16f4 90       		nop
 2893              	L194:
 2894 16f5 B8000000 		movl	$0, %eax
GAS LISTING asm80386_x.s 			page 63


 2894      00
 2895              	L198:
 2896 16fa C9       		leave
 2897              		.cfi_restore 5
 2898              		.cfi_def_cfa 4, 4
 2899 16fb C3       		ret
 2900              		.cfi_endproc
 2901              	LFE22:
 2902              		.globl	_a_get1operand
 2903              		.def	_a_get1operand;	.scl	2;	.type	32;	.endef
 2904              	_a_get1operand:
 2905              	LFB23:
 2906              		.cfi_startproc
 2907 16fc 55       		pushl	%ebp
 2908              		.cfi_def_cfa_offset 8
 2909              		.cfi_offset 5, -8
 2910 16fd 89E5     		movl	%esp, %ebp
 2911              		.cfi_def_cfa_register 5
 2912 16ff 83EC48   		subl	$72, %esp
 2913 1702 E8F9E8FF 		call	_a_spskip
 2913      FF
 2914 1707 A1801B0B 		movl	_a_linebufp, %eax
 2914      00
 2915 170c 0FB600   		movzbl	(%eax), %eax
 2916 170f 3C5B     		cmpb	$91, %al
 2917 1711 7546     		jne	L209
 2918 1713 8D45C8   		leal	-56(%ebp), %eax
 2919 1716 89442408 		movl	%eax, 8(%esp)
 2920 171a 8D45D8   		leal	-40(%ebp), %eax
 2921 171d 89442404 		movl	%eax, 4(%esp)
 2922 1721 8D45E8   		leal	-24(%ebp), %eax
 2923 1724 890424   		movl	%eax, (%esp)
 2924 1727 E8FDF6FF 		call	_a_get_EA_operand
 2924      FF
 2925 172c 85C0     		testl	%eax, %eax
 2926 172e 7407     		je	L210
 2927 1730 B8FFFFFF 		movl	$-1, %eax
 2927      FF
 2928 1735 EB43     		jmp	L213
 2929              	L210:
 2930 1737 8D45C8   		leal	-56(%ebp), %eax
 2931 173a 8944240C 		movl	%eax, 12(%esp)
 2932 173e 8D45D8   		leal	-40(%ebp), %eax
 2933 1741 89442408 		movl	%eax, 8(%esp)
 2934 1745 8D45E8   		leal	-24(%ebp), %eax
 2935 1748 89442404 		movl	%eax, 4(%esp)
 2936 174c 8B4508   		movl	8(%ebp), %eax
 2937 174f 890424   		movl	%eax, (%esp)
 2938 1752 E8DCFDFF 		call	_a_make_EA
 2938      FF
 2939 1757 EB21     		jmp	L213
 2940              	L209:
 2941 1759 8B4508   		movl	8(%ebp), %eax
 2942 175c 890424   		movl	%eax, (%esp)
 2943 175f E801F5FF 		call	_a_get_regoperand
 2943      FF
 2944 1764 85C0     		testl	%eax, %eax
GAS LISTING asm80386_x.s 			page 64


 2945 1766 7407     		je	L212
 2946 1768 B8000000 		movl	$0, %eax
 2946      00
 2947 176d EB0B     		jmp	L213
 2948              	L212:
 2949 176f 8B4508   		movl	8(%ebp), %eax
 2950 1772 890424   		movl	%eax, (%esp)
 2951 1775 E89BF5FF 		call	_a_get_const_operand
 2951      FF
 2952              	L213:
 2953 177a C9       		leave
 2954              		.cfi_restore 5
 2955              		.cfi_def_cfa 4, 4
 2956 177b C3       		ret
 2957              		.cfi_endproc
 2958              	LFE23:
 2959              		.globl	_a_op_TYPE1
 2960              		.def	_a_op_TYPE1;	.scl	2;	.type	32;	.endef
 2961              	_a_op_TYPE1:
 2962              	LFB24:
 2963              		.cfi_startproc
 2964 177c 55       		pushl	%ebp
 2965              		.cfi_def_cfa_offset 8
 2966              		.cfi_offset 5, -8
 2967 177d 89E5     		movl	%esp, %ebp
 2968              		.cfi_def_cfa_register 5
 2969 177f 8B4508   		movl	8(%ebp), %eax
 2970 1782 A25C170B 		movb	%al, _a_inst
 2970      00
 2971 1787 C7056817 		movl	$1, _a_inst_ptr
 2971      0B000100 
 2971      0000
 2972 1791 E8B7ECFF 		call	_a_objout
 2972      FF
 2973 1796 90       		nop
 2974 1797 5D       		popl	%ebp
 2975              		.cfi_restore 5
 2976              		.cfi_def_cfa 4, 4
 2977 1798 C3       		ret
 2978              		.cfi_endproc
 2979              	LFE24:
 2980              		.globl	_a_op_TYPE2
 2981              		.def	_a_op_TYPE2;	.scl	2;	.type	32;	.endef
 2982              	_a_op_TYPE2:
 2983              	LFB25:
 2984              		.cfi_startproc
 2985 1799 55       		pushl	%ebp
 2986              		.cfi_def_cfa_offset 8
 2987              		.cfi_offset 5, -8
 2988 179a 89E5     		movl	%esp, %ebp
 2989              		.cfi_def_cfa_register 5
 2990 179c BA5C170B 		movl	$_a_inst, %edx
 2990      00
 2991 17a1 8B4508   		movl	8(%ebp), %eax
 2992 17a4 668902   		movw	%ax, (%edx)
 2993 17a7 C7056817 		movl	$2, _a_inst_ptr
 2993      0B000200 
GAS LISTING asm80386_x.s 			page 65


 2993      0000
 2994 17b1 E897ECFF 		call	_a_objout
 2994      FF
 2995 17b6 90       		nop
 2996 17b7 5D       		popl	%ebp
 2997              		.cfi_restore 5
 2998              		.cfi_def_cfa 4, 4
 2999 17b8 C3       		ret
 3000              		.cfi_endproc
 3001              	LFE25:
 3002              		.globl	_a_op_TYPE3_a
 3003              		.def	_a_op_TYPE3_a;	.scl	2;	.type	32;	.endef
 3004              	_a_op_TYPE3_a:
 3005              	LFB26:
 3006              		.cfi_startproc
 3007 17b9 55       		pushl	%ebp
 3008              		.cfi_def_cfa_offset 8
 3009              		.cfi_offset 5, -8
 3010 17ba 89E5     		movl	%esp, %ebp
 3011              		.cfi_def_cfa_register 5
 3012 17bc 8B450C   		movl	12(%ebp), %eax
 3013 17bf 8B00     		movl	(%eax), %eax
 3014 17c1 83F801   		cmpl	$1, %eax
 3015 17c4 7525     		jne	L217
 3016 17c6 8B4508   		movl	8(%ebp), %eax
 3017 17c9 C1F808   		sarl	$8, %eax
 3018 17cc A25C170B 		movb	%al, _a_inst
 3018      00
 3019 17d1 8B4510   		movl	16(%ebp), %eax
 3020 17d4 8B4008   		movl	8(%eax), %eax
 3021 17d7 A25D170B 		movb	%al, _a_inst+1
 3021      00
 3022 17dc C7056817 		movl	$2, _a_inst_ptr
 3022      0B000200 
 3022      0000
 3023 17e6 E9A50000 		jmp	L221
 3023      00
 3024              	L217:
 3025 17eb 8B450C   		movl	12(%ebp), %eax
 3026 17ee 8B00     		movl	(%eax), %eax
 3027 17f0 83F802   		cmpl	$2, %eax
 3028 17f3 752F     		jne	L219
 3029 17f5 C6055C17 		movb	$102, _a_inst
 3029      0B0066
 3030 17fc 8B4508   		movl	8(%ebp), %eax
 3031 17ff C1F808   		sarl	$8, %eax
 3032 1802 83C801   		orl	$1, %eax
 3033 1805 A25D170B 		movb	%al, _a_inst+1
 3033      00
 3034 180a 8B4510   		movl	16(%ebp), %eax
 3035 180d 8B4008   		movl	8(%eax), %eax
 3036 1810 BA5E170B 		movl	$_a_inst+2, %edx
 3036      00
 3037 1815 668902   		movw	%ax, (%edx)
 3038 1818 C7056817 		movl	$4, _a_inst_ptr
 3038      0B000400 
 3038      0000
GAS LISTING asm80386_x.s 			page 66


 3039 1822 EB6C     		jmp	L221
 3040              	L219:
 3041 1824 8B450C   		movl	12(%ebp), %eax
 3042 1827 8B00     		movl	(%eax), %eax
 3043 1829 83F803   		cmpl	$3, %eax
 3044 182c 7562     		jne	L221
 3045 182e 8B4510   		movl	16(%ebp), %eax
 3046 1831 8B00     		movl	(%eax), %eax
 3047 1833 83F80A   		cmpl	$10, %eax
 3048 1836 7533     		jne	L220
 3049 1838 8B4508   		movl	8(%ebp), %eax
 3050 183b C1F810   		sarl	$16, %eax
 3051 183e 83C803   		orl	$3, %eax
 3052 1841 A25C170B 		movb	%al, _a_inst
 3052      00
 3053 1846 8B4508   		movl	8(%ebp), %eax
 3054 1849 C1F818   		sarl	$24, %eax
 3055 184c 83C8C0   		orl	$-64, %eax
 3056 184f A25D170B 		movb	%al, _a_inst+1
 3056      00
 3057 1854 8B4510   		movl	16(%ebp), %eax
 3058 1857 8B4008   		movl	8(%eax), %eax
 3059 185a A25E170B 		movb	%al, _a_inst+2
 3059      00
 3060 185f C7056817 		movl	$3, _a_inst_ptr
 3060      0B000300 
 3060      0000
 3061 1869 EB25     		jmp	L221
 3062              	L220:
 3063 186b 8B4508   		movl	8(%ebp), %eax
 3064 186e C1F808   		sarl	$8, %eax
 3065 1871 83C801   		orl	$1, %eax
 3066 1874 A25C170B 		movb	%al, _a_inst
 3066      00
 3067 1879 BA5D170B 		movl	$_a_inst+1, %edx
 3067      00
 3068 187e 8B4510   		movl	16(%ebp), %eax
 3069 1881 8B4008   		movl	8(%eax), %eax
 3070 1884 8902     		movl	%eax, (%edx)
 3071 1886 C7056817 		movl	$5, _a_inst_ptr
 3071      0B000500 
 3071      0000
 3072              	L221:
 3073 1890 90       		nop
 3074 1891 5D       		popl	%ebp
 3075              		.cfi_restore 5
 3076              		.cfi_def_cfa 4, 4
 3077 1892 C3       		ret
 3078              		.cfi_endproc
 3079              	LFE26:
 3080              		.globl	_a_op_TYPE3_b
 3081              		.def	_a_op_TYPE3_b;	.scl	2;	.type	32;	.endef
 3082              	_a_op_TYPE3_b:
 3083              	LFB27:
 3084              		.cfi_startproc
 3085 1893 55       		pushl	%ebp
 3086              		.cfi_def_cfa_offset 8
GAS LISTING asm80386_x.s 			page 67


 3087              		.cfi_offset 5, -8
 3088 1894 89E5     		movl	%esp, %ebp
 3089              		.cfi_def_cfa_register 5
 3090 1896 83EC18   		subl	$24, %esp
 3091 1899 8B450C   		movl	12(%ebp), %eax
 3092 189c 8B00     		movl	(%eax), %eax
 3093 189e 83F801   		cmpl	$1, %eax
 3094 18a1 753C     		jne	L223
 3095 18a3 8B4510   		movl	16(%ebp), %eax
 3096 18a6 8B00     		movl	(%eax), %eax
 3097 18a8 83F801   		cmpl	$1, %eax
 3098 18ab 7532     		jne	L223
 3099 18ad 8B4508   		movl	8(%ebp), %eax
 3100 18b0 A25C170B 		movb	%al, _a_inst
 3100      00
 3101 18b5 8B450C   		movl	12(%ebp), %eax
 3102 18b8 8B4004   		movl	4(%eax), %eax
 3103 18bb 89C2     		movl	%eax, %edx
 3104 18bd 8B4510   		movl	16(%ebp), %eax
 3105 18c0 8B4004   		movl	4(%eax), %eax
 3106 18c3 C1E003   		sall	$3, %eax
 3107 18c6 01D0     		addl	%edx, %eax
 3108 18c8 83E840   		subl	$64, %eax
 3109 18cb A25D170B 		movb	%al, _a_inst+1
 3109      00
 3110 18d0 C7056817 		movl	$2, _a_inst_ptr
 3110      0B000200 
 3110      0000
 3111 18da E9AE0000 		jmp	L224
 3111      00
 3112              	L223:
 3113 18df 8B450C   		movl	12(%ebp), %eax
 3114 18e2 8B00     		movl	(%eax), %eax
 3115 18e4 83F802   		cmpl	$2, %eax
 3116 18e7 7543     		jne	L225
 3117 18e9 8B4510   		movl	16(%ebp), %eax
 3118 18ec 8B00     		movl	(%eax), %eax
 3119 18ee 83F802   		cmpl	$2, %eax
 3120 18f1 7539     		jne	L225
 3121 18f3 C6055C17 		movb	$102, _a_inst
 3121      0B0066
 3122 18fa 8B4508   		movl	8(%ebp), %eax
 3123 18fd 83C801   		orl	$1, %eax
 3124 1900 A25D170B 		movb	%al, _a_inst+1
 3124      00
 3125 1905 8B450C   		movl	12(%ebp), %eax
 3126 1908 8B4004   		movl	4(%eax), %eax
 3127 190b 89C2     		movl	%eax, %edx
 3128 190d 8B4510   		movl	16(%ebp), %eax
 3129 1910 8B4004   		movl	4(%eax), %eax
 3130 1913 C1E003   		sall	$3, %eax
 3131 1916 01D0     		addl	%edx, %eax
 3132 1918 83E840   		subl	$64, %eax
 3133 191b A25E170B 		movb	%al, _a_inst+2
 3133      00
 3134 1920 C7056817 		movl	$3, _a_inst_ptr
 3134      0B000300 
GAS LISTING asm80386_x.s 			page 68


 3134      0000
 3135 192a EB61     		jmp	L224
 3136              	L225:
 3137 192c 8B450C   		movl	12(%ebp), %eax
 3138 192f 8B00     		movl	(%eax), %eax
 3139 1931 83F803   		cmpl	$3, %eax
 3140 1934 753C     		jne	L226
 3141 1936 8B4510   		movl	16(%ebp), %eax
 3142 1939 8B00     		movl	(%eax), %eax
 3143 193b 83F803   		cmpl	$3, %eax
 3144 193e 7532     		jne	L226
 3145 1940 8B4508   		movl	8(%ebp), %eax
 3146 1943 83C801   		orl	$1, %eax
 3147 1946 A25C170B 		movb	%al, _a_inst
 3147      00
 3148 194b 8B450C   		movl	12(%ebp), %eax
 3149 194e 8B4004   		movl	4(%eax), %eax
 3150 1951 89C2     		movl	%eax, %edx
 3151 1953 8B4510   		movl	16(%ebp), %eax
 3152 1956 8B4004   		movl	4(%eax), %eax
 3153 1959 C1E003   		sall	$3, %eax
 3154 195c 01D0     		addl	%edx, %eax
 3155 195e 83E840   		subl	$64, %eax
 3156 1961 A25D170B 		movb	%al, _a_inst+1
 3156      00
 3157 1966 C7056817 		movl	$2, _a_inst_ptr
 3157      0B000200 
 3157      0000
 3158 1970 EB1B     		jmp	L224
 3159              	L226:
 3160 1972 C7442404 		movl	$1123, 4(%esp)
 3160      63040000 
 3161 197a C7042405 		movl	$5, (%esp)
 3161      000000
 3162 1981 E88FE7FF 		call	_a_error_message
 3162      FF
 3163 1986 B8FFFFFF 		movl	$-1, %eax
 3163      FF
 3164 198b EB05     		jmp	L227
 3165              	L224:
 3166 198d B8000000 		movl	$0, %eax
 3166      00
 3167              	L227:
 3168 1992 C9       		leave
 3169              		.cfi_restore 5
 3170              		.cfi_def_cfa 4, 4
 3171 1993 C3       		ret
 3172              		.cfi_endproc
 3173              	LFE27:
 3174              		.globl	_a_op_TYPE3_c_sub
 3175              		.def	_a_op_TYPE3_c_sub;	.scl	2;	.type	32;	.endef
 3176              	_a_op_TYPE3_c_sub:
 3177              	LFB28:
 3178              		.cfi_startproc
 3179 1994 55       		pushl	%ebp
 3180              		.cfi_def_cfa_offset 8
 3181              		.cfi_offset 5, -8
GAS LISTING asm80386_x.s 			page 69


 3182 1995 89E5     		movl	%esp, %ebp
 3183              		.cfi_def_cfa_register 5
 3184 1997 83EC18   		subl	$24, %esp
 3185 199a 8B4510   		movl	16(%ebp), %eax
 3186 199d 8B00     		movl	(%eax), %eax
 3187 199f 83E814   		subl	$20, %eax
 3188 19a2 83F805   		cmpl	$5, %eax
 3189 19a5 0F872F02 		ja	L229
 3189      0000
 3190 19ab 8B048588 		movl	L231(,%eax,4), %eax
 3190      080000
 3191 19b2 FFE0     		jmp	*%eax
 3192              		.data
 3193 0886 0000     		.align 4
 3194              	L231:
 3195 0888 B4190000 		.long	L236
 3196 088c FA190000 		.long	L235
 3197 0890 521A0000 		.long	L234
 3198 0894 AC1A0000 		.long	L233
 3199 0898 051B0000 		.long	L232
 3200 089c 701B0000 		.long	L230
 3201              		.text
 3202              	L236:
 3203 19b4 8B4508   		movl	8(%ebp), %eax
 3204 19b7 89C2     		movl	%eax, %edx
 3205 19b9 8B4514   		movl	20(%ebp), %eax
 3206 19bc 09D0     		orl	%edx, %eax
 3207 19be 89C2     		movl	%eax, %edx
 3208 19c0 8B4518   		movl	24(%ebp), %eax
 3209 19c3 055C170B 		addl	$_a_inst, %eax
 3209      00
 3210 19c8 8810     		movb	%dl, (%eax)
 3211 19ca 8B4510   		movl	16(%ebp), %eax
 3212 19cd 0FB6400C 		movzbl	12(%eax), %eax
 3213 19d1 89C2     		movl	%eax, %edx
 3214 19d3 8B450C   		movl	12(%ebp), %eax
 3215 19d6 8B4004   		movl	4(%eax), %eax
 3216 19d9 C1E003   		sall	$3, %eax
 3217 19dc 09C2     		orl	%eax, %edx
 3218 19de 8B4518   		movl	24(%ebp), %eax
 3219 19e1 83C001   		addl	$1, %eax
 3220 19e4 88905C17 		movb	%dl, _a_inst(%eax)
 3220      0B00
 3221 19ea 8B4518   		movl	24(%ebp), %eax
 3222 19ed 83C002   		addl	$2, %eax
 3223 19f0 A368170B 		movl	%eax, _a_inst_ptr
 3223      00
 3224 19f5 E9FB0100 		jmp	L237
 3224      00
 3225              	L235:
 3226 19fa 8B4508   		movl	8(%ebp), %eax
 3227 19fd 89C2     		movl	%eax, %edx
 3228 19ff 8B4514   		movl	20(%ebp), %eax
 3229 1a02 09D0     		orl	%edx, %eax
 3230 1a04 89C2     		movl	%eax, %edx
 3231 1a06 8B4518   		movl	24(%ebp), %eax
 3232 1a09 055C170B 		addl	$_a_inst, %eax
GAS LISTING asm80386_x.s 			page 70


 3232      00
 3233 1a0e 8810     		movb	%dl, (%eax)
 3234 1a10 8B4510   		movl	16(%ebp), %eax
 3235 1a13 0FB6400C 		movzbl	12(%eax), %eax
 3236 1a17 89C2     		movl	%eax, %edx
 3237 1a19 8B450C   		movl	12(%ebp), %eax
 3238 1a1c 8B4004   		movl	4(%eax), %eax
 3239 1a1f C1E003   		sall	$3, %eax
 3240 1a22 09C2     		orl	%eax, %edx
 3241 1a24 8B4518   		movl	24(%ebp), %eax
 3242 1a27 83C001   		addl	$1, %eax
 3243 1a2a 88905C17 		movb	%dl, _a_inst(%eax)
 3243      0B00
 3244 1a30 8B4510   		movl	16(%ebp), %eax
 3245 1a33 8B5008   		movl	8(%eax), %edx
 3246 1a36 8B4518   		movl	24(%ebp), %eax
 3247 1a39 83C002   		addl	$2, %eax
 3248 1a3c 88905C17 		movb	%dl, _a_inst(%eax)
 3248      0B00
 3249 1a42 8B4518   		movl	24(%ebp), %eax
 3250 1a45 83C003   		addl	$3, %eax
 3251 1a48 A368170B 		movl	%eax, _a_inst_ptr
 3251      00
 3252 1a4d E9A30100 		jmp	L237
 3252      00
 3253              	L234:
 3254 1a52 8B4508   		movl	8(%ebp), %eax
 3255 1a55 89C2     		movl	%eax, %edx
 3256 1a57 8B4514   		movl	20(%ebp), %eax
 3257 1a5a 09D0     		orl	%edx, %eax
 3258 1a5c 89C2     		movl	%eax, %edx
 3259 1a5e 8B4518   		movl	24(%ebp), %eax
 3260 1a61 055C170B 		addl	$_a_inst, %eax
 3260      00
 3261 1a66 8810     		movb	%dl, (%eax)
 3262 1a68 8B4510   		movl	16(%ebp), %eax
 3263 1a6b 0FB6400C 		movzbl	12(%eax), %eax
 3264 1a6f 89C2     		movl	%eax, %edx
 3265 1a71 8B450C   		movl	12(%ebp), %eax
 3266 1a74 8B4004   		movl	4(%eax), %eax
 3267 1a77 C1E003   		sall	$3, %eax
 3268 1a7a 09C2     		orl	%eax, %edx
 3269 1a7c 8B4518   		movl	24(%ebp), %eax
 3270 1a7f 83C001   		addl	$1, %eax
 3271 1a82 88905C17 		movb	%dl, _a_inst(%eax)
 3271      0B00
 3272 1a88 8B4518   		movl	24(%ebp), %eax
 3273 1a8b 83C002   		addl	$2, %eax
 3274 1a8e 8D905C17 		leal	_a_inst(%eax), %edx
 3274      0B00
 3275 1a94 8B4510   		movl	16(%ebp), %eax
 3276 1a97 8B4008   		movl	8(%eax), %eax
 3277 1a9a 8902     		movl	%eax, (%edx)
 3278 1a9c 8B4518   		movl	24(%ebp), %eax
 3279 1a9f 83C006   		addl	$6, %eax
 3280 1aa2 A368170B 		movl	%eax, _a_inst_ptr
 3280      00
GAS LISTING asm80386_x.s 			page 71


 3281 1aa7 E9490100 		jmp	L237
 3281      00
 3282              	L233:
 3283 1aac 8B4508   		movl	8(%ebp), %eax
 3284 1aaf 89C2     		movl	%eax, %edx
 3285 1ab1 8B4514   		movl	20(%ebp), %eax
 3286 1ab4 09D0     		orl	%edx, %eax
 3287 1ab6 89C2     		movl	%eax, %edx
 3288 1ab8 8B4518   		movl	24(%ebp), %eax
 3289 1abb 055C170B 		addl	$_a_inst, %eax
 3289      00
 3290 1ac0 8810     		movb	%dl, (%eax)
 3291 1ac2 8B4510   		movl	16(%ebp), %eax
 3292 1ac5 0FB6400C 		movzbl	12(%eax), %eax
 3293 1ac9 89C2     		movl	%eax, %edx
 3294 1acb 8B450C   		movl	12(%ebp), %eax
 3295 1ace 8B4004   		movl	4(%eax), %eax
 3296 1ad1 C1E003   		sall	$3, %eax
 3297 1ad4 09C2     		orl	%eax, %edx
 3298 1ad6 8B4518   		movl	24(%ebp), %eax
 3299 1ad9 83C001   		addl	$1, %eax
 3300 1adc 88905C17 		movb	%dl, _a_inst(%eax)
 3300      0B00
 3301 1ae2 8B4518   		movl	24(%ebp), %eax
 3302 1ae5 8D5002   		leal	2(%eax), %edx
 3303 1ae8 8B4510   		movl	16(%ebp), %eax
 3304 1aeb 0FB6400D 		movzbl	13(%eax), %eax
 3305 1aef 88825C17 		movb	%al, _a_inst(%edx)
 3305      0B00
 3306 1af5 8B4518   		movl	24(%ebp), %eax
 3307 1af8 83C003   		addl	$3, %eax
 3308 1afb A368170B 		movl	%eax, _a_inst_ptr
 3308      00
 3309 1b00 E9F00000 		jmp	L237
 3309      00
 3310              	L232:
 3311 1b05 8B4508   		movl	8(%ebp), %eax
 3312 1b08 89C2     		movl	%eax, %edx
 3313 1b0a 8B4514   		movl	20(%ebp), %eax
 3314 1b0d 09D0     		orl	%edx, %eax
 3315 1b0f 89C2     		movl	%eax, %edx
 3316 1b11 8B4518   		movl	24(%ebp), %eax
 3317 1b14 055C170B 		addl	$_a_inst, %eax
 3317      00
 3318 1b19 8810     		movb	%dl, (%eax)
 3319 1b1b 8B4510   		movl	16(%ebp), %eax
 3320 1b1e 0FB6400C 		movzbl	12(%eax), %eax
 3321 1b22 89C2     		movl	%eax, %edx
 3322 1b24 8B450C   		movl	12(%ebp), %eax
 3323 1b27 8B4004   		movl	4(%eax), %eax
 3324 1b2a C1E003   		sall	$3, %eax
 3325 1b2d 09C2     		orl	%eax, %edx
 3326 1b2f 8B4518   		movl	24(%ebp), %eax
 3327 1b32 83C001   		addl	$1, %eax
 3328 1b35 88905C17 		movb	%dl, _a_inst(%eax)
 3328      0B00
 3329 1b3b 8B4518   		movl	24(%ebp), %eax
GAS LISTING asm80386_x.s 			page 72


 3330 1b3e 8D5002   		leal	2(%eax), %edx
 3331 1b41 8B4510   		movl	16(%ebp), %eax
 3332 1b44 0FB6400D 		movzbl	13(%eax), %eax
 3333 1b48 88825C17 		movb	%al, _a_inst(%edx)
 3333      0B00
 3334 1b4e 8B4510   		movl	16(%ebp), %eax
 3335 1b51 8B5008   		movl	8(%eax), %edx
 3336 1b54 8B4518   		movl	24(%ebp), %eax
 3337 1b57 83C003   		addl	$3, %eax
 3338 1b5a 88905C17 		movb	%dl, _a_inst(%eax)
 3338      0B00
 3339 1b60 8B4518   		movl	24(%ebp), %eax
 3340 1b63 83C004   		addl	$4, %eax
 3341 1b66 A368170B 		movl	%eax, _a_inst_ptr
 3341      00
 3342 1b6b E9850000 		jmp	L237
 3342      00
 3343              	L230:
 3344 1b70 8B4508   		movl	8(%ebp), %eax
 3345 1b73 89C2     		movl	%eax, %edx
 3346 1b75 8B4514   		movl	20(%ebp), %eax
 3347 1b78 09D0     		orl	%edx, %eax
 3348 1b7a 89C2     		movl	%eax, %edx
 3349 1b7c 8B4518   		movl	24(%ebp), %eax
 3350 1b7f 055C170B 		addl	$_a_inst, %eax
 3350      00
 3351 1b84 8810     		movb	%dl, (%eax)
 3352 1b86 8B4510   		movl	16(%ebp), %eax
 3353 1b89 0FB6400C 		movzbl	12(%eax), %eax
 3354 1b8d 89C2     		movl	%eax, %edx
 3355 1b8f 8B450C   		movl	12(%ebp), %eax
 3356 1b92 8B4004   		movl	4(%eax), %eax
 3357 1b95 C1E003   		sall	$3, %eax
 3358 1b98 09C2     		orl	%eax, %edx
 3359 1b9a 8B4518   		movl	24(%ebp), %eax
 3360 1b9d 83C001   		addl	$1, %eax
 3361 1ba0 88905C17 		movb	%dl, _a_inst(%eax)
 3361      0B00
 3362 1ba6 8B4518   		movl	24(%ebp), %eax
 3363 1ba9 8D5002   		leal	2(%eax), %edx
 3364 1bac 8B4510   		movl	16(%ebp), %eax
 3365 1baf 0FB6400D 		movzbl	13(%eax), %eax
 3366 1bb3 88825C17 		movb	%al, _a_inst(%edx)
 3366      0B00
 3367 1bb9 8B4518   		movl	24(%ebp), %eax
 3368 1bbc 83C003   		addl	$3, %eax
 3369 1bbf 8D905C17 		leal	_a_inst(%eax), %edx
 3369      0B00
 3370 1bc5 8B4510   		movl	16(%ebp), %eax
 3371 1bc8 8B4008   		movl	8(%eax), %eax
 3372 1bcb 8902     		movl	%eax, (%edx)
 3373 1bcd 8B4518   		movl	24(%ebp), %eax
 3374 1bd0 83C007   		addl	$7, %eax
 3375 1bd3 A368170B 		movl	%eax, _a_inst_ptr
 3375      00
 3376 1bd8 EB1B     		jmp	L237
 3377              	L229:
GAS LISTING asm80386_x.s 			page 73


 3378 1bda C7442404 		movl	$1170, 4(%esp)
 3378      92040000 
 3379 1be2 C7042405 		movl	$5, (%esp)
 3379      000000
 3380 1be9 E827E5FF 		call	_a_error_message
 3380      FF
 3381 1bee B8FFFFFF 		movl	$-1, %eax
 3381      FF
 3382 1bf3 EB05     		jmp	L238
 3383              	L237:
 3384 1bf5 B8000000 		movl	$0, %eax
 3384      00
 3385              	L238:
 3386 1bfa C9       		leave
 3387              		.cfi_restore 5
 3388              		.cfi_def_cfa 4, 4
 3389 1bfb C3       		ret
 3390              		.cfi_endproc
 3391              	LFE28:
 3392              		.globl	_a_op_TYPE3_c
 3393              		.def	_a_op_TYPE3_c;	.scl	2;	.type	32;	.endef
 3394              	_a_op_TYPE3_c:
 3395              	LFB29:
 3396              		.cfi_startproc
 3397 1bfc 55       		pushl	%ebp
 3398              		.cfi_def_cfa_offset 8
 3399              		.cfi_offset 5, -8
 3400 1bfd 89E5     		movl	%esp, %ebp
 3401              		.cfi_def_cfa_register 5
 3402 1bff 83EC28   		subl	$40, %esp
 3403 1c02 8B450C   		movl	12(%ebp), %eax
 3404 1c05 8B00     		movl	(%eax), %eax
 3405 1c07 83F801   		cmpl	$1, %eax
 3406 1c0a 753B     		jne	L240
 3407 1c0c C7442410 		movl	$0, 16(%esp)
 3407      00000000 
 3408 1c14 C744240C 		movl	$2, 12(%esp)
 3408      02000000 
 3409 1c1c 8B4510   		movl	16(%ebp), %eax
 3410 1c1f 89442408 		movl	%eax, 8(%esp)
 3411 1c23 8B450C   		movl	12(%ebp), %eax
 3412 1c26 89442404 		movl	%eax, 4(%esp)
 3413 1c2a 8B4508   		movl	8(%ebp), %eax
 3414 1c2d 890424   		movl	%eax, (%esp)
 3415 1c30 E85FFDFF 		call	_a_op_TYPE3_c_sub
 3415      FF
 3416 1c35 85C0     		testl	%eax, %eax
 3417 1c37 0F84A800 		je	L241
 3417      0000
 3418 1c3d B8FFFFFF 		movl	$-1, %eax
 3418      FF
 3419 1c42 E9A30000 		jmp	L242
 3419      00
 3420              	L240:
 3421 1c47 8B450C   		movl	12(%ebp), %eax
 3422 1c4a 8B00     		movl	(%eax), %eax
 3423 1c4c 83F802   		cmpl	$2, %eax
GAS LISTING asm80386_x.s 			page 74


 3424 1c4f 753B     		jne	L243
 3425 1c51 C6055C17 		movb	$102, _a_inst
 3425      0B0066
 3426 1c58 C7442410 		movl	$1, 16(%esp)
 3426      01000000 
 3427 1c60 C744240C 		movl	$3, 12(%esp)
 3427      03000000 
 3428 1c68 8B4510   		movl	16(%ebp), %eax
 3429 1c6b 89442408 		movl	%eax, 8(%esp)
 3430 1c6f 8B450C   		movl	12(%ebp), %eax
 3431 1c72 89442404 		movl	%eax, 4(%esp)
 3432 1c76 8B4508   		movl	8(%ebp), %eax
 3433 1c79 890424   		movl	%eax, (%esp)
 3434 1c7c E813FDFF 		call	_a_op_TYPE3_c_sub
 3434      FF
 3435 1c81 85C0     		testl	%eax, %eax
 3436 1c83 7460     		je	L241
 3437 1c85 B8FFFFFF 		movl	$-1, %eax
 3437      FF
 3438 1c8a EB5E     		jmp	L242
 3439              	L243:
 3440 1c8c 8B450C   		movl	12(%ebp), %eax
 3441 1c8f 8B00     		movl	(%eax), %eax
 3442 1c91 83F803   		cmpl	$3, %eax
 3443 1c94 7534     		jne	L244
 3444 1c96 C7442410 		movl	$0, 16(%esp)
 3444      00000000 
 3445 1c9e C744240C 		movl	$3, 12(%esp)
 3445      03000000 
 3446 1ca6 8B4510   		movl	16(%ebp), %eax
 3447 1ca9 89442408 		movl	%eax, 8(%esp)
 3448 1cad 8B450C   		movl	12(%ebp), %eax
 3449 1cb0 89442404 		movl	%eax, 4(%esp)
 3450 1cb4 8B4508   		movl	8(%ebp), %eax
 3451 1cb7 890424   		movl	%eax, (%esp)
 3452 1cba E8D5FCFF 		call	_a_op_TYPE3_c_sub
 3452      FF
 3453 1cbf 85C0     		testl	%eax, %eax
 3454 1cc1 7422     		je	L241
 3455 1cc3 B8FFFFFF 		movl	$-1, %eax
 3455      FF
 3456 1cc8 EB20     		jmp	L242
 3457              	L244:
 3458 1cca C7442404 		movl	$1196, 4(%esp)
 3458      AC040000 
 3459 1cd2 C7042405 		movl	$5, (%esp)
 3459      000000
 3460 1cd9 E837E4FF 		call	_a_error_message
 3460      FF
 3461 1cde B8FFFFFF 		movl	$-1, %eax
 3461      FF
 3462 1ce3 EB05     		jmp	L242
 3463              	L241:
 3464 1ce5 B8000000 		movl	$0, %eax
 3464      00
 3465              	L242:
 3466 1cea C9       		leave
GAS LISTING asm80386_x.s 			page 75


 3467              		.cfi_restore 5
 3468              		.cfi_def_cfa 4, 4
 3469 1ceb C3       		ret
 3470              		.cfi_endproc
 3471              	LFE29:
 3472              		.globl	_a_op_TYPE3_d
 3473              		.def	_a_op_TYPE3_d;	.scl	2;	.type	32;	.endef
 3474              	_a_op_TYPE3_d:
 3475              	LFB30:
 3476              		.cfi_startproc
 3477 1cec 55       		pushl	%ebp
 3478              		.cfi_def_cfa_offset 8
 3479              		.cfi_offset 5, -8
 3480 1ced 89E5     		movl	%esp, %ebp
 3481              		.cfi_def_cfa_register 5
 3482 1cef 83EC28   		subl	$40, %esp
 3483 1cf2 8B4510   		movl	16(%ebp), %eax
 3484 1cf5 8B00     		movl	(%eax), %eax
 3485 1cf7 83F801   		cmpl	$1, %eax
 3486 1cfa 753B     		jne	L246
 3487 1cfc C7442410 		movl	$0, 16(%esp)
 3487      00000000 
 3488 1d04 C744240C 		movl	$0, 12(%esp)
 3488      00000000 
 3489 1d0c 8B450C   		movl	12(%ebp), %eax
 3490 1d0f 89442408 		movl	%eax, 8(%esp)
 3491 1d13 8B4510   		movl	16(%ebp), %eax
 3492 1d16 89442404 		movl	%eax, 4(%esp)
 3493 1d1a 8B4508   		movl	8(%ebp), %eax
 3494 1d1d 890424   		movl	%eax, (%esp)
 3495 1d20 E86FFCFF 		call	_a_op_TYPE3_c_sub
 3495      FF
 3496 1d25 85C0     		testl	%eax, %eax
 3497 1d27 0F84A800 		je	L247
 3497      0000
 3498 1d2d B8FFFFFF 		movl	$-1, %eax
 3498      FF
 3499 1d32 E9A30000 		jmp	L248
 3499      00
 3500              	L246:
 3501 1d37 8B4510   		movl	16(%ebp), %eax
 3502 1d3a 8B00     		movl	(%eax), %eax
 3503 1d3c 83F802   		cmpl	$2, %eax
 3504 1d3f 753B     		jne	L249
 3505 1d41 C6055C17 		movb	$102, _a_inst
 3505      0B0066
 3506 1d48 C7442410 		movl	$1, 16(%esp)
 3506      01000000 
 3507 1d50 C744240C 		movl	$1, 12(%esp)
 3507      01000000 
 3508 1d58 8B450C   		movl	12(%ebp), %eax
 3509 1d5b 89442408 		movl	%eax, 8(%esp)
 3510 1d5f 8B4510   		movl	16(%ebp), %eax
 3511 1d62 89442404 		movl	%eax, 4(%esp)
 3512 1d66 8B4508   		movl	8(%ebp), %eax
 3513 1d69 890424   		movl	%eax, (%esp)
 3514 1d6c E823FCFF 		call	_a_op_TYPE3_c_sub
GAS LISTING asm80386_x.s 			page 76


 3514      FF
 3515 1d71 85C0     		testl	%eax, %eax
 3516 1d73 7460     		je	L247
 3517 1d75 B8FFFFFF 		movl	$-1, %eax
 3517      FF
 3518 1d7a EB5E     		jmp	L248
 3519              	L249:
 3520 1d7c 8B4510   		movl	16(%ebp), %eax
 3521 1d7f 8B00     		movl	(%eax), %eax
 3522 1d81 83F803   		cmpl	$3, %eax
 3523 1d84 7534     		jne	L250
 3524 1d86 C7442410 		movl	$0, 16(%esp)
 3524      00000000 
 3525 1d8e C744240C 		movl	$1, 12(%esp)
 3525      01000000 
 3526 1d96 8B450C   		movl	12(%ebp), %eax
 3527 1d99 89442408 		movl	%eax, 8(%esp)
 3528 1d9d 8B4510   		movl	16(%ebp), %eax
 3529 1da0 89442404 		movl	%eax, 4(%esp)
 3530 1da4 8B4508   		movl	8(%ebp), %eax
 3531 1da7 890424   		movl	%eax, (%esp)
 3532 1daa E8E5FBFF 		call	_a_op_TYPE3_c_sub
 3532      FF
 3533 1daf 85C0     		testl	%eax, %eax
 3534 1db1 7422     		je	L247
 3535 1db3 B8FFFFFF 		movl	$-1, %eax
 3535      FF
 3536 1db8 EB20     		jmp	L248
 3537              	L250:
 3538 1dba C7442404 		movl	$1222, 4(%esp)
 3538      C6040000 
 3539 1dc2 C7042405 		movl	$5, (%esp)
 3539      000000
 3540 1dc9 E847E3FF 		call	_a_error_message
 3540      FF
 3541 1dce B8FFFFFF 		movl	$-1, %eax
 3541      FF
 3542 1dd3 EB05     		jmp	L248
 3543              	L247:
 3544 1dd5 B8000000 		movl	$0, %eax
 3544      00
 3545              	L248:
 3546 1dda C9       		leave
 3547              		.cfi_restore 5
 3548              		.cfi_def_cfa 4, 4
 3549 1ddb C3       		ret
 3550              		.cfi_endproc
 3551              	LFE30:
 3552              		.globl	_a_op_TYPE3_e_sub
 3553              		.def	_a_op_TYPE3_e_sub;	.scl	2;	.type	32;	.endef
 3554              	_a_op_TYPE3_e_sub:
 3555              	LFB31:
 3556              		.cfi_startproc
 3557 1ddc 55       		pushl	%ebp
 3558              		.cfi_def_cfa_offset 8
 3559              		.cfi_offset 5, -8
 3560 1ddd 89E5     		movl	%esp, %ebp
GAS LISTING asm80386_x.s 			page 77


 3561              		.cfi_def_cfa_register 5
 3562 1ddf 83EC18   		subl	$24, %esp
 3563 1de2 8B450C   		movl	12(%ebp), %eax
 3564 1de5 8B00     		movl	(%eax), %eax
 3565 1de7 83E814   		subl	$20, %eax
 3566 1dea 83F805   		cmpl	$5, %eax
 3567 1ded 0F872F02 		ja	L252
 3567      0000
 3568 1df3 8B0485A0 		movl	L254(,%eax,4), %eax
 3568      080000
 3569 1dfa FFE0     		jmp	*%eax
 3570              		.data
 3571              		.align 4
 3572              	L254:
 3573 08a0 FC1D0000 		.long	L259
 3574 08a4 421E0000 		.long	L258
 3575 08a8 9A1E0000 		.long	L257
 3576 08ac F41E0000 		.long	L256
 3577 08b0 4D1F0000 		.long	L255
 3578 08b4 B81F0000 		.long	L253
 3579              		.text
 3580              	L259:
 3581 1dfc 8B4508   		movl	8(%ebp), %eax
 3582 1dff C1F810   		sarl	$16, %eax
 3583 1e02 89C2     		movl	%eax, %edx
 3584 1e04 8B4514   		movl	20(%ebp), %eax
 3585 1e07 09D0     		orl	%edx, %eax
 3586 1e09 89C2     		movl	%eax, %edx
 3587 1e0b 8B4518   		movl	24(%ebp), %eax
 3588 1e0e 055C170B 		addl	$_a_inst, %eax
 3588      00
 3589 1e13 8810     		movb	%dl, (%eax)
 3590 1e15 8B450C   		movl	12(%ebp), %eax
 3591 1e18 0FB6400C 		movzbl	12(%eax), %eax
 3592 1e1c 89C2     		movl	%eax, %edx
 3593 1e1e 8B4508   		movl	8(%ebp), %eax
 3594 1e21 C1F818   		sarl	$24, %eax
 3595 1e24 09C2     		orl	%eax, %edx
 3596 1e26 8B4518   		movl	24(%ebp), %eax
 3597 1e29 83C001   		addl	$1, %eax
 3598 1e2c 88905C17 		movb	%dl, _a_inst(%eax)
 3598      0B00
 3599 1e32 8B4518   		movl	24(%ebp), %eax
 3600 1e35 83C002   		addl	$2, %eax
 3601 1e38 A368170B 		movl	%eax, _a_inst_ptr
 3601      00
 3602 1e3d E9FE0100 		jmp	L260
 3602      00
 3603              	L258:
 3604 1e42 8B4508   		movl	8(%ebp), %eax
 3605 1e45 C1F810   		sarl	$16, %eax
 3606 1e48 89C2     		movl	%eax, %edx
 3607 1e4a 8B4514   		movl	20(%ebp), %eax
 3608 1e4d 09D0     		orl	%edx, %eax
 3609 1e4f 89C2     		movl	%eax, %edx
 3610 1e51 8B4518   		movl	24(%ebp), %eax
 3611 1e54 055C170B 		addl	$_a_inst, %eax
GAS LISTING asm80386_x.s 			page 78


 3611      00
 3612 1e59 8810     		movb	%dl, (%eax)
 3613 1e5b 8B450C   		movl	12(%ebp), %eax
 3614 1e5e 0FB6400C 		movzbl	12(%eax), %eax
 3615 1e62 89C2     		movl	%eax, %edx
 3616 1e64 8B4508   		movl	8(%ebp), %eax
 3617 1e67 C1F818   		sarl	$24, %eax
 3618 1e6a 09C2     		orl	%eax, %edx
 3619 1e6c 8B4518   		movl	24(%ebp), %eax
 3620 1e6f 83C001   		addl	$1, %eax
 3621 1e72 88905C17 		movb	%dl, _a_inst(%eax)
 3621      0B00
 3622 1e78 8B450C   		movl	12(%ebp), %eax
 3623 1e7b 8B5008   		movl	8(%eax), %edx
 3624 1e7e 8B4518   		movl	24(%ebp), %eax
 3625 1e81 83C002   		addl	$2, %eax
 3626 1e84 88905C17 		movb	%dl, _a_inst(%eax)
 3626      0B00
 3627 1e8a 8B4518   		movl	24(%ebp), %eax
 3628 1e8d 83C003   		addl	$3, %eax
 3629 1e90 A368170B 		movl	%eax, _a_inst_ptr
 3629      00
 3630 1e95 E9A60100 		jmp	L260
 3630      00
 3631              	L257:
 3632 1e9a 8B4508   		movl	8(%ebp), %eax
 3633 1e9d C1F810   		sarl	$16, %eax
 3634 1ea0 89C2     		movl	%eax, %edx
 3635 1ea2 8B4514   		movl	20(%ebp), %eax
 3636 1ea5 09D0     		orl	%edx, %eax
 3637 1ea7 89C2     		movl	%eax, %edx
 3638 1ea9 8B4518   		movl	24(%ebp), %eax
 3639 1eac 055C170B 		addl	$_a_inst, %eax
 3639      00
 3640 1eb1 8810     		movb	%dl, (%eax)
 3641 1eb3 8B450C   		movl	12(%ebp), %eax
 3642 1eb6 0FB6400C 		movzbl	12(%eax), %eax
 3643 1eba 89C2     		movl	%eax, %edx
 3644 1ebc 8B4508   		movl	8(%ebp), %eax
 3645 1ebf C1F818   		sarl	$24, %eax
 3646 1ec2 09C2     		orl	%eax, %edx
 3647 1ec4 8B4518   		movl	24(%ebp), %eax
 3648 1ec7 83C001   		addl	$1, %eax
 3649 1eca 88905C17 		movb	%dl, _a_inst(%eax)
 3649      0B00
 3650 1ed0 8B4518   		movl	24(%ebp), %eax
 3651 1ed3 83C002   		addl	$2, %eax
 3652 1ed6 8D905C17 		leal	_a_inst(%eax), %edx
 3652      0B00
 3653 1edc 8B450C   		movl	12(%ebp), %eax
 3654 1edf 8B4008   		movl	8(%eax), %eax
 3655 1ee2 8902     		movl	%eax, (%edx)
 3656 1ee4 8B4518   		movl	24(%ebp), %eax
 3657 1ee7 83C006   		addl	$6, %eax
 3658 1eea A368170B 		movl	%eax, _a_inst_ptr
 3658      00
 3659 1eef E94C0100 		jmp	L260
GAS LISTING asm80386_x.s 			page 79


 3659      00
 3660              	L256:
 3661 1ef4 8B4508   		movl	8(%ebp), %eax
 3662 1ef7 C1F810   		sarl	$16, %eax
 3663 1efa 89C2     		movl	%eax, %edx
 3664 1efc 8B4514   		movl	20(%ebp), %eax
 3665 1eff 09D0     		orl	%edx, %eax
 3666 1f01 89C2     		movl	%eax, %edx
 3667 1f03 8B4518   		movl	24(%ebp), %eax
 3668 1f06 055C170B 		addl	$_a_inst, %eax
 3668      00
 3669 1f0b 8810     		movb	%dl, (%eax)
 3670 1f0d 8B450C   		movl	12(%ebp), %eax
 3671 1f10 0FB6400C 		movzbl	12(%eax), %eax
 3672 1f14 89C2     		movl	%eax, %edx
 3673 1f16 8B4508   		movl	8(%ebp), %eax
 3674 1f19 C1F818   		sarl	$24, %eax
 3675 1f1c 09C2     		orl	%eax, %edx
 3676 1f1e 8B4518   		movl	24(%ebp), %eax
 3677 1f21 83C001   		addl	$1, %eax
 3678 1f24 88905C17 		movb	%dl, _a_inst(%eax)
 3678      0B00
 3679 1f2a 8B4518   		movl	24(%ebp), %eax
 3680 1f2d 8D5002   		leal	2(%eax), %edx
 3681 1f30 8B450C   		movl	12(%ebp), %eax
 3682 1f33 0FB6400D 		movzbl	13(%eax), %eax
 3683 1f37 88825C17 		movb	%al, _a_inst(%edx)
 3683      0B00
 3684 1f3d 8B4518   		movl	24(%ebp), %eax
 3685 1f40 83C003   		addl	$3, %eax
 3686 1f43 A368170B 		movl	%eax, _a_inst_ptr
 3686      00
 3687 1f48 E9F30000 		jmp	L260
 3687      00
 3688              	L255:
 3689 1f4d 8B4508   		movl	8(%ebp), %eax
 3690 1f50 C1F810   		sarl	$16, %eax
 3691 1f53 89C2     		movl	%eax, %edx
 3692 1f55 8B4514   		movl	20(%ebp), %eax
 3693 1f58 09D0     		orl	%edx, %eax
 3694 1f5a 89C2     		movl	%eax, %edx
 3695 1f5c 8B4518   		movl	24(%ebp), %eax
 3696 1f5f 055C170B 		addl	$_a_inst, %eax
 3696      00
 3697 1f64 8810     		movb	%dl, (%eax)
 3698 1f66 8B450C   		movl	12(%ebp), %eax
 3699 1f69 0FB6400C 		movzbl	12(%eax), %eax
 3700 1f6d 89C2     		movl	%eax, %edx
 3701 1f6f 8B4508   		movl	8(%ebp), %eax
 3702 1f72 C1F818   		sarl	$24, %eax
 3703 1f75 09C2     		orl	%eax, %edx
 3704 1f77 8B4518   		movl	24(%ebp), %eax
 3705 1f7a 83C001   		addl	$1, %eax
 3706 1f7d 88905C17 		movb	%dl, _a_inst(%eax)
 3706      0B00
 3707 1f83 8B4518   		movl	24(%ebp), %eax
 3708 1f86 8D5002   		leal	2(%eax), %edx
GAS LISTING asm80386_x.s 			page 80


 3709 1f89 8B450C   		movl	12(%ebp), %eax
 3710 1f8c 0FB6400D 		movzbl	13(%eax), %eax
 3711 1f90 88825C17 		movb	%al, _a_inst(%edx)
 3711      0B00
 3712 1f96 8B450C   		movl	12(%ebp), %eax
 3713 1f99 8B5008   		movl	8(%eax), %edx
 3714 1f9c 8B4518   		movl	24(%ebp), %eax
 3715 1f9f 83C003   		addl	$3, %eax
 3716 1fa2 88905C17 		movb	%dl, _a_inst(%eax)
 3716      0B00
 3717 1fa8 8B4518   		movl	24(%ebp), %eax
 3718 1fab 83C004   		addl	$4, %eax
 3719 1fae A368170B 		movl	%eax, _a_inst_ptr
 3719      00
 3720 1fb3 E9880000 		jmp	L260
 3720      00
 3721              	L253:
 3722 1fb8 8B4508   		movl	8(%ebp), %eax
 3723 1fbb C1F810   		sarl	$16, %eax
 3724 1fbe 89C2     		movl	%eax, %edx
 3725 1fc0 8B4514   		movl	20(%ebp), %eax
 3726 1fc3 09D0     		orl	%edx, %eax
 3727 1fc5 89C2     		movl	%eax, %edx
 3728 1fc7 8B4518   		movl	24(%ebp), %eax
 3729 1fca 055C170B 		addl	$_a_inst, %eax
 3729      00
 3730 1fcf 8810     		movb	%dl, (%eax)
 3731 1fd1 8B450C   		movl	12(%ebp), %eax
 3732 1fd4 0FB6400C 		movzbl	12(%eax), %eax
 3733 1fd8 89C2     		movl	%eax, %edx
 3734 1fda 8B4508   		movl	8(%ebp), %eax
 3735 1fdd C1F818   		sarl	$24, %eax
 3736 1fe0 09C2     		orl	%eax, %edx
 3737 1fe2 8B4518   		movl	24(%ebp), %eax
 3738 1fe5 83C001   		addl	$1, %eax
 3739 1fe8 88905C17 		movb	%dl, _a_inst(%eax)
 3739      0B00
 3740 1fee 8B4518   		movl	24(%ebp), %eax
 3741 1ff1 8D5002   		leal	2(%eax), %edx
 3742 1ff4 8B450C   		movl	12(%ebp), %eax
 3743 1ff7 0FB6400D 		movzbl	13(%eax), %eax
 3744 1ffb 88825C17 		movb	%al, _a_inst(%edx)
 3744      0B00
 3745 2001 8B4518   		movl	24(%ebp), %eax
 3746 2004 83C003   		addl	$3, %eax
 3747 2007 8D905C17 		leal	_a_inst(%eax), %edx
 3747      0B00
 3748 200d 8B450C   		movl	12(%ebp), %eax
 3749 2010 8B4008   		movl	8(%eax), %eax
 3750 2013 8902     		movl	%eax, (%edx)
 3751 2015 8B4518   		movl	24(%ebp), %eax
 3752 2018 83C007   		addl	$7, %eax
 3753 201b A368170B 		movl	%eax, _a_inst_ptr
 3753      00
 3754 2020 EB1E     		jmp	L260
 3755              	L252:
 3756 2022 C7442404 		movl	$1269, 4(%esp)
GAS LISTING asm80386_x.s 			page 81


 3756      F5040000 
 3757 202a C7042405 		movl	$5, (%esp)
 3757      000000
 3758 2031 E8DFE0FF 		call	_a_error_message
 3758      FF
 3759 2036 B8FFFFFF 		movl	$-1, %eax
 3759      FF
 3760 203b E9A10000 		jmp	L261
 3760      00
 3761              	L260:
 3762 2040 8B4510   		movl	16(%ebp), %eax
 3763 2043 8B00     		movl	(%eax), %eax
 3764 2045 83F80A   		cmpl	$10, %eax
 3765 2048 7520     		jne	L262
 3766 204a 8B4510   		movl	16(%ebp), %eax
 3767 204d 8B5008   		movl	8(%eax), %edx
 3768 2050 A168170B 		movl	_a_inst_ptr, %eax
 3768      00
 3769 2055 88905C17 		movb	%dl, _a_inst(%eax)
 3769      0B00
 3770 205b A168170B 		movl	_a_inst_ptr, %eax
 3770      00
 3771 2060 83C001   		addl	$1, %eax
 3772 2063 A368170B 		movl	%eax, _a_inst_ptr
 3772      00
 3773 2068 EB72     		jmp	L263
 3774              	L262:
 3775 206a 8B4510   		movl	16(%ebp), %eax
 3776 206d 8B00     		movl	(%eax), %eax
 3777 206f 83F80B   		cmpl	$11, %eax
 3778 2072 7522     		jne	L264
 3779 2074 8B4510   		movl	16(%ebp), %eax
 3780 2077 8B5008   		movl	8(%eax), %edx
 3781 207a A168170B 		movl	_a_inst_ptr, %eax
 3781      00
 3782 207f 055C170B 		addl	$_a_inst, %eax
 3782      00
 3783 2084 668910   		movw	%dx, (%eax)
 3784 2087 A168170B 		movl	_a_inst_ptr, %eax
 3784      00
 3785 208c 83C002   		addl	$2, %eax
 3786 208f A368170B 		movl	%eax, _a_inst_ptr
 3786      00
 3787 2094 EB46     		jmp	L263
 3788              	L264:
 3789 2096 8B4510   		movl	16(%ebp), %eax
 3790 2099 8B00     		movl	(%eax), %eax
 3791 209b 83F80C   		cmpl	$12, %eax
 3792 209e 7521     		jne	L265
 3793 20a0 8B4510   		movl	16(%ebp), %eax
 3794 20a3 8B5008   		movl	8(%eax), %edx
 3795 20a6 A168170B 		movl	_a_inst_ptr, %eax
 3795      00
 3796 20ab 055C170B 		addl	$_a_inst, %eax
 3796      00
 3797 20b0 8910     		movl	%edx, (%eax)
 3798 20b2 A168170B 		movl	_a_inst_ptr, %eax
GAS LISTING asm80386_x.s 			page 82


 3798      00
 3799 20b7 83C004   		addl	$4, %eax
 3800 20ba A368170B 		movl	%eax, _a_inst_ptr
 3800      00
 3801 20bf EB1B     		jmp	L263
 3802              	L265:
 3803 20c1 C7442404 		movl	$1285, 4(%esp)
 3803      05050000 
 3804 20c9 C7042405 		movl	$5, (%esp)
 3804      000000
 3805 20d0 E840E0FF 		call	_a_error_message
 3805      FF
 3806 20d5 B8FFFFFF 		movl	$-1, %eax
 3806      FF
 3807 20da EB05     		jmp	L261
 3808              	L263:
 3809 20dc B8000000 		movl	$0, %eax
 3809      00
 3810              	L261:
 3811 20e1 C9       		leave
 3812              		.cfi_restore 5
 3813              		.cfi_def_cfa 4, 4
 3814 20e2 C3       		ret
 3815              		.cfi_endproc
 3816              	LFE31:
 3817              		.globl	_a_op_TYPE3_e
 3818              		.def	_a_op_TYPE3_e;	.scl	2;	.type	32;	.endef
 3819              	_a_op_TYPE3_e:
 3820              	LFB32:
 3821              		.cfi_startproc
 3822 20e3 55       		pushl	%ebp
 3823              		.cfi_def_cfa_offset 8
 3824              		.cfi_offset 5, -8
 3825 20e4 89E5     		movl	%esp, %ebp
 3826              		.cfi_def_cfa_register 5
 3827 20e6 83EC28   		subl	$40, %esp
 3828 20e9 8B4510   		movl	16(%ebp), %eax
 3829 20ec 8B00     		movl	(%eax), %eax
 3830 20ee 83F80A   		cmpl	$10, %eax
 3831 20f1 753B     		jne	L267
 3832 20f3 C7442410 		movl	$0, 16(%esp)
 3832      00000000 
 3833 20fb C744240C 		movl	$0, 12(%esp)
 3833      00000000 
 3834 2103 8B4510   		movl	16(%ebp), %eax
 3835 2106 89442408 		movl	%eax, 8(%esp)
 3836 210a 8B450C   		movl	12(%ebp), %eax
 3837 210d 89442404 		movl	%eax, 4(%esp)
 3838 2111 8B4508   		movl	8(%ebp), %eax
 3839 2114 890424   		movl	%eax, (%esp)
 3840 2117 E8C0FCFF 		call	_a_op_TYPE3_e_sub
 3840      FF
 3841 211c 85C0     		testl	%eax, %eax
 3842 211e 0F84A800 		je	L268
 3842      0000
 3843 2124 B8FFFFFF 		movl	$-1, %eax
 3843      FF
GAS LISTING asm80386_x.s 			page 83


 3844 2129 E9A30000 		jmp	L269
 3844      00
 3845              	L267:
 3846 212e 8B4510   		movl	16(%ebp), %eax
 3847 2131 8B00     		movl	(%eax), %eax
 3848 2133 83F80B   		cmpl	$11, %eax
 3849 2136 753B     		jne	L270
 3850 2138 C6055C17 		movb	$102, _a_inst
 3850      0B0066
 3851 213f C7442410 		movl	$1, 16(%esp)
 3851      01000000 
 3852 2147 C744240C 		movl	$1, 12(%esp)
 3852      01000000 
 3853 214f 8B4510   		movl	16(%ebp), %eax
 3854 2152 89442408 		movl	%eax, 8(%esp)
 3855 2156 8B450C   		movl	12(%ebp), %eax
 3856 2159 89442404 		movl	%eax, 4(%esp)
 3857 215d 8B4508   		movl	8(%ebp), %eax
 3858 2160 890424   		movl	%eax, (%esp)
 3859 2163 E874FCFF 		call	_a_op_TYPE3_e_sub
 3859      FF
 3860 2168 85C0     		testl	%eax, %eax
 3861 216a 7460     		je	L268
 3862 216c B8FFFFFF 		movl	$-1, %eax
 3862      FF
 3863 2171 EB5E     		jmp	L269
 3864              	L270:
 3865 2173 8B4510   		movl	16(%ebp), %eax
 3866 2176 8B00     		movl	(%eax), %eax
 3867 2178 83F80C   		cmpl	$12, %eax
 3868 217b 7534     		jne	L271
 3869 217d C7442410 		movl	$0, 16(%esp)
 3869      00000000 
 3870 2185 C744240C 		movl	$1, 12(%esp)
 3870      01000000 
 3871 218d 8B4510   		movl	16(%ebp), %eax
 3872 2190 89442408 		movl	%eax, 8(%esp)
 3873 2194 8B450C   		movl	12(%ebp), %eax
 3874 2197 89442404 		movl	%eax, 4(%esp)
 3875 219b 8B4508   		movl	8(%ebp), %eax
 3876 219e 890424   		movl	%eax, (%esp)
 3877 21a1 E836FCFF 		call	_a_op_TYPE3_e_sub
 3877      FF
 3878 21a6 85C0     		testl	%eax, %eax
 3879 21a8 7422     		je	L268
 3880 21aa B8FFFFFF 		movl	$-1, %eax
 3880      FF
 3881 21af EB20     		jmp	L269
 3882              	L271:
 3883 21b1 C7442404 		movl	$1311, 4(%esp)
 3883      1F050000 
 3884 21b9 C7042405 		movl	$5, (%esp)
 3884      000000
 3885 21c0 E850DFFF 		call	_a_error_message
 3885      FF
 3886 21c5 B8FFFFFF 		movl	$-1, %eax
 3886      FF
GAS LISTING asm80386_x.s 			page 84


 3887 21ca EB05     		jmp	L269
 3888              	L268:
 3889 21cc B8000000 		movl	$0, %eax
 3889      00
 3890              	L269:
 3891 21d1 C9       		leave
 3892              		.cfi_restore 5
 3893              		.cfi_def_cfa 4, 4
 3894 21d2 C3       		ret
 3895              		.cfi_endproc
 3896              	LFE32:
 3897              		.globl	_a_op_TYPE3_f
 3898              		.def	_a_op_TYPE3_f;	.scl	2;	.type	32;	.endef
 3899              	_a_op_TYPE3_f:
 3900              	LFB33:
 3901              		.cfi_startproc
 3902 21d3 55       		pushl	%ebp
 3903              		.cfi_def_cfa_offset 8
 3904              		.cfi_offset 5, -8
 3905 21d4 89E5     		movl	%esp, %ebp
 3906              		.cfi_def_cfa_register 5
 3907 21d6 83EC18   		subl	$24, %esp
 3908 21d9 8B450C   		movl	12(%ebp), %eax
 3909 21dc 8B00     		movl	(%eax), %eax
 3910 21de 83F801   		cmpl	$1, %eax
 3911 21e1 753D     		jne	L273
 3912 21e3 8B4508   		movl	8(%ebp), %eax
 3913 21e6 C1F810   		sarl	$16, %eax
 3914 21e9 A25C170B 		movb	%al, _a_inst
 3914      00
 3915 21ee 8B450C   		movl	12(%ebp), %eax
 3916 21f1 8B4004   		movl	4(%eax), %eax
 3917 21f4 83C8C0   		orl	$-64, %eax
 3918 21f7 89C2     		movl	%eax, %edx
 3919 21f9 8B4508   		movl	8(%ebp), %eax
 3920 21fc C1F818   		sarl	$24, %eax
 3921 21ff 09D0     		orl	%edx, %eax
 3922 2201 A25D170B 		movb	%al, _a_inst+1
 3922      00
 3923 2206 8B4510   		movl	16(%ebp), %eax
 3924 2209 8B4008   		movl	8(%eax), %eax
 3925 220c A25E170B 		movb	%al, _a_inst+2
 3925      00
 3926 2211 C7056817 		movl	$3, _a_inst_ptr
 3926      0B000300 
 3926      0000
 3927 221b E9580100 		jmp	L274
 3927      00
 3928              	L273:
 3929 2220 8B450C   		movl	12(%ebp), %eax
 3930 2223 8B00     		movl	(%eax), %eax
 3931 2225 83F802   		cmpl	$2, %eax
 3932 2228 0F859B00 		jne	L275
 3932      0000
 3933 222e 8B4510   		movl	16(%ebp), %eax
 3934 2231 8B00     		movl	(%eax), %eax
 3935 2233 83F80A   		cmpl	$10, %eax
GAS LISTING asm80386_x.s 			page 85


 3936 2236 7547     		jne	L276
 3937 2238 C6055C17 		movb	$102, _a_inst
 3937      0B0066
 3938 223f 8B4508   		movl	8(%ebp), %eax
 3939 2242 C1F810   		sarl	$16, %eax
 3940 2245 83C803   		orl	$3, %eax
 3941 2248 A25D170B 		movb	%al, _a_inst+1
 3941      00
 3942 224d 8B450C   		movl	12(%ebp), %eax
 3943 2250 8B4004   		movl	4(%eax), %eax
 3944 2253 83C8C0   		orl	$-64, %eax
 3945 2256 89C2     		movl	%eax, %edx
 3946 2258 8B4508   		movl	8(%ebp), %eax
 3947 225b C1F818   		sarl	$24, %eax
 3948 225e 09D0     		orl	%edx, %eax
 3949 2260 A25E170B 		movb	%al, _a_inst+2
 3949      00
 3950 2265 8B4510   		movl	16(%ebp), %eax
 3951 2268 8B4008   		movl	8(%eax), %eax
 3952 226b A25F170B 		movb	%al, _a_inst+3
 3952      00
 3953 2270 C7056817 		movl	$4, _a_inst_ptr
 3953      0B000400 
 3953      0000
 3954 227a E9F90000 		jmp	L274
 3954      00
 3955              	L276:
 3956 227f C6055C17 		movb	$102, _a_inst
 3956      0B0066
 3957 2286 8B4508   		movl	8(%ebp), %eax
 3958 2289 C1F810   		sarl	$16, %eax
 3959 228c 83C801   		orl	$1, %eax
 3960 228f A25D170B 		movb	%al, _a_inst+1
 3960      00
 3961 2294 8B450C   		movl	12(%ebp), %eax
 3962 2297 8B4004   		movl	4(%eax), %eax
 3963 229a 83C8C0   		orl	$-64, %eax
 3964 229d 89C2     		movl	%eax, %edx
 3965 229f 8B4508   		movl	8(%ebp), %eax
 3966 22a2 C1F818   		sarl	$24, %eax
 3967 22a5 09D0     		orl	%edx, %eax
 3968 22a7 A25E170B 		movb	%al, _a_inst+2
 3968      00
 3969 22ac 8B4510   		movl	16(%ebp), %eax
 3970 22af 8B4008   		movl	8(%eax), %eax
 3971 22b2 BA5F170B 		movl	$_a_inst+3, %edx
 3971      00
 3972 22b7 668902   		movw	%ax, (%edx)
 3973 22ba C7056817 		movl	$5, _a_inst_ptr
 3973      0B000500 
 3973      0000
 3974 22c4 E9AF0000 		jmp	L274
 3974      00
 3975              	L275:
 3976 22c9 8B450C   		movl	12(%ebp), %eax
 3977 22cc 8B00     		movl	(%eax), %eax
 3978 22ce 83F803   		cmpl	$3, %eax
GAS LISTING asm80386_x.s 			page 86


 3979 22d1 0F858600 		jne	L277
 3979      0000
 3980 22d7 8B4510   		movl	16(%ebp), %eax
 3981 22da 8B00     		movl	(%eax), %eax
 3982 22dc 83F80A   		cmpl	$10, %eax
 3983 22df 753D     		jne	L278
 3984 22e1 8B4508   		movl	8(%ebp), %eax
 3985 22e4 C1F810   		sarl	$16, %eax
 3986 22e7 83C803   		orl	$3, %eax
 3987 22ea A25C170B 		movb	%al, _a_inst
 3987      00
 3988 22ef 8B450C   		movl	12(%ebp), %eax
 3989 22f2 8B4004   		movl	4(%eax), %eax
 3990 22f5 83C8C0   		orl	$-64, %eax
 3991 22f8 89C2     		movl	%eax, %edx
 3992 22fa 8B4508   		movl	8(%ebp), %eax
 3993 22fd C1F818   		sarl	$24, %eax
 3994 2300 09D0     		orl	%edx, %eax
 3995 2302 A25D170B 		movb	%al, _a_inst+1
 3995      00
 3996 2307 8B4510   		movl	16(%ebp), %eax
 3997 230a 8B4008   		movl	8(%eax), %eax
 3998 230d A25E170B 		movb	%al, _a_inst+2
 3998      00
 3999 2312 C7056817 		movl	$3, _a_inst_ptr
 3999      0B000300 
 3999      0000
 4000 231c EB5A     		jmp	L274
 4001              	L278:
 4002 231e 8B4508   		movl	8(%ebp), %eax
 4003 2321 C1F810   		sarl	$16, %eax
 4004 2324 83C801   		orl	$1, %eax
 4005 2327 A25C170B 		movb	%al, _a_inst
 4005      00
 4006 232c 8B450C   		movl	12(%ebp), %eax
 4007 232f 8B4004   		movl	4(%eax), %eax
 4008 2332 83C8C0   		orl	$-64, %eax
 4009 2335 89C2     		movl	%eax, %edx
 4010 2337 8B4508   		movl	8(%ebp), %eax
 4011 233a C1F818   		sarl	$24, %eax
 4012 233d 09D0     		orl	%edx, %eax
 4013 233f A25D170B 		movb	%al, _a_inst+1
 4013      00
 4014 2344 8B4510   		movl	16(%ebp), %eax
 4015 2347 8B4008   		movl	8(%eax), %eax
 4016 234a BA5E170B 		movl	$_a_inst+2, %edx
 4016      00
 4017 234f 8902     		movl	%eax, (%edx)
 4018 2351 C7056817 		movl	$6, _a_inst_ptr
 4018      0B000600 
 4018      0000
 4019 235b EB1B     		jmp	L274
 4020              	L277:
 4021 235d C7442404 		movl	$1357, 4(%esp)
 4021      4D050000 
 4022 2365 C7042405 		movl	$5, (%esp)
 4022      000000
GAS LISTING asm80386_x.s 			page 87


 4023 236c E8A4DDFF 		call	_a_error_message
 4023      FF
 4024 2371 B8FFFFFF 		movl	$-1, %eax
 4024      FF
 4025 2376 EB05     		jmp	L279
 4026              	L274:
 4027 2378 B8000000 		movl	$0, %eax
 4027      00
 4028              	L279:
 4029 237d C9       		leave
 4030              		.cfi_restore 5
 4031              		.cfi_def_cfa 4, 4
 4032 237e C3       		ret
 4033              		.cfi_endproc
 4034              	LFE33:
 4035              		.globl	_a_op_TYPE3
 4036              		.def	_a_op_TYPE3;	.scl	2;	.type	32;	.endef
 4037              	_a_op_TYPE3:
 4038              	LFB34:
 4039              		.cfi_startproc
 4040 237f 55       		pushl	%ebp
 4041              		.cfi_def_cfa_offset 8
 4042              		.cfi_offset 5, -8
 4043 2380 89E5     		movl	%esp, %ebp
 4044              		.cfi_def_cfa_register 5
 4045 2382 83EC38   		subl	$56, %esp
 4046 2385 8D45E8   		leal	-24(%ebp), %eax
 4047 2388 890424   		movl	%eax, (%esp)
 4048 238b E86CF3FF 		call	_a_get1operand
 4048      FF
 4049 2390 85C0     		testl	%eax, %eax
 4050 2392 740A     		je	L281
 4051 2394 B8FFFFFF 		movl	$-1, %eax
 4051      FF
 4052 2399 E9220200 		jmp	L297
 4052      00
 4053              	L281:
 4054 239e E85DDCFF 		call	_a_spskip
 4054      FF
 4055 23a3 A1801B0B 		movl	_a_linebufp, %eax
 4055      00
 4056 23a8 0FB600   		movzbl	(%eax), %eax
 4057 23ab 3C2C     		cmpb	$44, %al
 4058 23ad 741E     		je	L283
 4059 23af C7442404 		movl	$1373, 4(%esp)
 4059      5D050000 
 4060 23b7 C7042405 		movl	$5, (%esp)
 4060      000000
 4061 23be E852DDFF 		call	_a_error_message
 4061      FF
 4062 23c3 B8FFFFFF 		movl	$-1, %eax
 4062      FF
 4063 23c8 E9F30100 		jmp	L297
 4063      00
 4064              	L283:
 4065 23cd A1801B0B 		movl	_a_linebufp, %eax
 4065      00
GAS LISTING asm80386_x.s 			page 88


 4066 23d2 83C001   		addl	$1, %eax
 4067 23d5 A3801B0B 		movl	%eax, _a_linebufp
 4067      00
 4068 23da 8D45D8   		leal	-40(%ebp), %eax
 4069 23dd 890424   		movl	%eax, (%esp)
 4070 23e0 E817F3FF 		call	_a_get1operand
 4070      FF
 4071 23e5 85C0     		testl	%eax, %eax
 4072 23e7 740A     		je	L284
 4073 23e9 B8FFFFFF 		movl	$-1, %eax
 4073      FF
 4074 23ee E9CD0100 		jmp	L297
 4074      00
 4075              	L284:
 4076 23f3 8B45E8   		movl	-24(%ebp), %eax
 4077 23f6 85C0     		testl	%eax, %eax
 4078 23f8 7E3D     		jle	L285
 4079 23fa 8B45E8   		movl	-24(%ebp), %eax
 4080 23fd 83F803   		cmpl	$3, %eax
 4081 2400 7F35     		jg	L285
 4082 2402 8B45EC   		movl	-20(%ebp), %eax
 4083 2405 85C0     		testl	%eax, %eax
 4084 2407 752E     		jne	L285
 4085 2409 8B45D8   		movl	-40(%ebp), %eax
 4086 240c 83F809   		cmpl	$9, %eax
 4087 240f 7E26     		jle	L285
 4088 2411 8B45D8   		movl	-40(%ebp), %eax
 4089 2414 83F80C   		cmpl	$12, %eax
 4090 2417 7F1E     		jg	L285
 4091 2419 8B4508   		movl	8(%ebp), %eax
 4092 241c 8D55D8   		leal	-40(%ebp), %edx
 4093 241f 89542408 		movl	%edx, 8(%esp)
 4094 2423 8D55E8   		leal	-24(%ebp), %edx
 4095 2426 89542404 		movl	%edx, 4(%esp)
 4096 242a 890424   		movl	%eax, (%esp)
 4097 242d E887F3FF 		call	_a_op_TYPE3_a
 4097      FF
 4098 2432 E97F0100 		jmp	L286
 4098      00
 4099              	L285:
 4100 2437 8B45E8   		movl	-24(%ebp), %eax
 4101 243a 85C0     		testl	%eax, %eax
 4102 243c 7E42     		jle	L287
 4103 243e 8B45E8   		movl	-24(%ebp), %eax
 4104 2441 83F803   		cmpl	$3, %eax
 4105 2444 7F3A     		jg	L287
 4106 2446 8B45D8   		movl	-40(%ebp), %eax
 4107 2449 85C0     		testl	%eax, %eax
 4108 244b 7E33     		jle	L287
 4109 244d 8B45D8   		movl	-40(%ebp), %eax
 4110 2450 83F803   		cmpl	$3, %eax
 4111 2453 7F2B     		jg	L287
 4112 2455 8B4508   		movl	8(%ebp), %eax
 4113 2458 8D55D8   		leal	-40(%ebp), %edx
 4114 245b 89542408 		movl	%edx, 8(%esp)
 4115 245f 8D55E8   		leal	-24(%ebp), %edx
 4116 2462 89542404 		movl	%edx, 4(%esp)
GAS LISTING asm80386_x.s 			page 89


 4117 2466 890424   		movl	%eax, (%esp)
 4118 2469 E825F4FF 		call	_a_op_TYPE3_b
 4118      FF
 4119 246e 85C0     		testl	%eax, %eax
 4120 2470 0F844001 		je	L286
 4120      0000
 4121 2476 B8FFFFFF 		movl	$-1, %eax
 4121      FF
 4122 247b E9400100 		jmp	L297
 4122      00
 4123              	L287:
 4124 2480 8B45E8   		movl	-24(%ebp), %eax
 4125 2483 85C0     		testl	%eax, %eax
 4126 2485 7E43     		jle	L289
 4127 2487 8B45E8   		movl	-24(%ebp), %eax
 4128 248a 83F803   		cmpl	$3, %eax
 4129 248d 7F3B     		jg	L289
 4130 248f 8B45D8   		movl	-40(%ebp), %eax
 4131 2492 83F813   		cmpl	$19, %eax
 4132 2495 7E33     		jle	L289
 4133 2497 8B45D8   		movl	-40(%ebp), %eax
 4134 249a 83F819   		cmpl	$25, %eax
 4135 249d 7F2B     		jg	L289
 4136 249f 8B4508   		movl	8(%ebp), %eax
 4137 24a2 8D55D8   		leal	-40(%ebp), %edx
 4138 24a5 89542408 		movl	%edx, 8(%esp)
 4139 24a9 8D55E8   		leal	-24(%ebp), %edx
 4140 24ac 89542404 		movl	%edx, 4(%esp)
 4141 24b0 890424   		movl	%eax, (%esp)
 4142 24b3 E844F7FF 		call	_a_op_TYPE3_c
 4142      FF
 4143 24b8 85C0     		testl	%eax, %eax
 4144 24ba 0F84F600 		je	L286
 4144      0000
 4145 24c0 B8FFFFFF 		movl	$-1, %eax
 4145      FF
 4146 24c5 E9F60000 		jmp	L297
 4146      00
 4147              	L289:
 4148 24ca 8B45E8   		movl	-24(%ebp), %eax
 4149 24cd 83F813   		cmpl	$19, %eax
 4150 24d0 7E42     		jle	L291
 4151 24d2 8B45E8   		movl	-24(%ebp), %eax
 4152 24d5 83F819   		cmpl	$25, %eax
 4153 24d8 7F3A     		jg	L291
 4154 24da 8B45D8   		movl	-40(%ebp), %eax
 4155 24dd 85C0     		testl	%eax, %eax
 4156 24df 7E33     		jle	L291
 4157 24e1 8B45D8   		movl	-40(%ebp), %eax
 4158 24e4 83F803   		cmpl	$3, %eax
 4159 24e7 7F2B     		jg	L291
 4160 24e9 8B4508   		movl	8(%ebp), %eax
 4161 24ec 8D55D8   		leal	-40(%ebp), %edx
 4162 24ef 89542408 		movl	%edx, 8(%esp)
 4163 24f3 8D55E8   		leal	-24(%ebp), %edx
 4164 24f6 89542404 		movl	%edx, 4(%esp)
 4165 24fa 890424   		movl	%eax, (%esp)
GAS LISTING asm80386_x.s 			page 90


 4166 24fd E8EAF7FF 		call	_a_op_TYPE3_d
 4166      FF
 4167 2502 85C0     		testl	%eax, %eax
 4168 2504 0F84AC00 		je	L286
 4168      0000
 4169 250a B8FFFFFF 		movl	$-1, %eax
 4169      FF
 4170 250f E9AC0000 		jmp	L297
 4170      00
 4171              	L291:
 4172 2514 8B45E8   		movl	-24(%ebp), %eax
 4173 2517 83F813   		cmpl	$19, %eax
 4174 251a 7E3C     		jle	L293
 4175 251c 8B45E8   		movl	-24(%ebp), %eax
 4176 251f 83F819   		cmpl	$25, %eax
 4177 2522 7F34     		jg	L293
 4178 2524 8B45D8   		movl	-40(%ebp), %eax
 4179 2527 83F809   		cmpl	$9, %eax
 4180 252a 7E2C     		jle	L293
 4181 252c 8B45D8   		movl	-40(%ebp), %eax
 4182 252f 83F80C   		cmpl	$12, %eax
 4183 2532 7F24     		jg	L293
 4184 2534 8B4508   		movl	8(%ebp), %eax
 4185 2537 8D55D8   		leal	-40(%ebp), %edx
 4186 253a 89542408 		movl	%edx, 8(%esp)
 4187 253e 8D55E8   		leal	-24(%ebp), %edx
 4188 2541 89542404 		movl	%edx, 4(%esp)
 4189 2545 890424   		movl	%eax, (%esp)
 4190 2548 E896FBFF 		call	_a_op_TYPE3_e
 4190      FF
 4191 254d 85C0     		testl	%eax, %eax
 4192 254f 7465     		je	L286
 4193 2551 B8FFFFFF 		movl	$-1, %eax
 4193      FF
 4194 2556 EB68     		jmp	L297
 4195              	L293:
 4196 2558 8B45E8   		movl	-24(%ebp), %eax
 4197 255b 85C0     		testl	%eax, %eax
 4198 255d 7E3C     		jle	L295
 4199 255f 8B45E8   		movl	-24(%ebp), %eax
 4200 2562 83F803   		cmpl	$3, %eax
 4201 2565 7F34     		jg	L295
 4202 2567 8B45D8   		movl	-40(%ebp), %eax
 4203 256a 83F809   		cmpl	$9, %eax
 4204 256d 7E2C     		jle	L295
 4205 256f 8B45D8   		movl	-40(%ebp), %eax
 4206 2572 83F80C   		cmpl	$12, %eax
 4207 2575 7F24     		jg	L295
 4208 2577 8B4508   		movl	8(%ebp), %eax
 4209 257a 8D55D8   		leal	-40(%ebp), %edx
 4210 257d 89542408 		movl	%edx, 8(%esp)
 4211 2581 8D55E8   		leal	-24(%ebp), %edx
 4212 2584 89542404 		movl	%edx, 4(%esp)
 4213 2588 890424   		movl	%eax, (%esp)
 4214 258b E843FCFF 		call	_a_op_TYPE3_f
 4214      FF
 4215 2590 85C0     		testl	%eax, %eax
GAS LISTING asm80386_x.s 			page 91


 4216 2592 7422     		je	L286
 4217 2594 B8FFFFFF 		movl	$-1, %eax
 4217      FF
 4218 2599 EB25     		jmp	L297
 4219              	L295:
 4220 259b C7442404 		movl	$1416, 4(%esp)
 4220      88050000 
 4221 25a3 C7042405 		movl	$5, (%esp)
 4221      000000
 4222 25aa E866DBFF 		call	_a_error_message
 4222      FF
 4223 25af B8FFFFFF 		movl	$-1, %eax
 4223      FF
 4224 25b4 EB0A     		jmp	L297
 4225              	L286:
 4226 25b6 E892DEFF 		call	_a_objout
 4226      FF
 4227 25bb B8000000 		movl	$0, %eax
 4227      00
 4228              	L297:
 4229 25c0 C9       		leave
 4230              		.cfi_restore 5
 4231              		.cfi_def_cfa 4, 4
 4232 25c1 C3       		ret
 4233              		.cfi_endproc
 4234              	LFE34:
 4235              		.globl	_a_op_TYPE4
 4236              		.def	_a_op_TYPE4;	.scl	2;	.type	32;	.endef
 4237              	_a_op_TYPE4:
 4238              	LFB35:
 4239              		.cfi_startproc
 4240 25c2 55       		pushl	%ebp
 4241              		.cfi_def_cfa_offset 8
 4242              		.cfi_offset 5, -8
 4243 25c3 89E5     		movl	%esp, %ebp
 4244              		.cfi_def_cfa_register 5
 4245 25c5 83EC28   		subl	$40, %esp
 4246 25c8 8D45F4   		leal	-12(%ebp), %eax
 4247 25cb 890424   		movl	%eax, (%esp)
 4248 25ce E8A2E5FF 		call	_a_expr
 4248      FF
 4249 25d3 85C0     		testl	%eax, %eax
 4250 25d5 740A     		je	L299
 4251 25d7 B8FFFFFF 		movl	$-1, %eax
 4251      FF
 4252 25dc E9940000 		jmp	L304
 4252      00
 4253              	L299:
 4254 25e1 E81ADAFF 		call	_a_spskip
 4254      FF
 4255 25e6 A1801B0B 		movl	_a_linebufp, %eax
 4255      00
 4256 25eb 0FB600   		movzbl	(%eax), %eax
 4257 25ee 3C3A     		cmpb	$58, %al
 4258 25f0 754F     		jne	L301
 4259 25f2 A1801B0B 		movl	_a_linebufp, %eax
 4259      00
GAS LISTING asm80386_x.s 			page 92


 4260 25f7 83C001   		addl	$1, %eax
 4261 25fa A3801B0B 		movl	%eax, _a_linebufp
 4261      00
 4262 25ff 8D45F0   		leal	-16(%ebp), %eax
 4263 2602 890424   		movl	%eax, (%esp)
 4264 2605 E86BE5FF 		call	_a_expr
 4264      FF
 4265 260a 85C0     		testl	%eax, %eax
 4266 260c 7407     		je	L302
 4267 260e B8FFFFFF 		movl	$-1, %eax
 4267      FF
 4268 2613 EB60     		jmp	L304
 4269              	L302:
 4270 2615 8B4508   		movl	8(%ebp), %eax
 4271 2618 C1E808   		shrl	$8, %eax
 4272 261b A25C170B 		movb	%al, _a_inst
 4272      00
 4273 2620 8B45F0   		movl	-16(%ebp), %eax
 4274 2623 BA5D170B 		movl	$_a_inst+1, %edx
 4274      00
 4275 2628 8902     		movl	%eax, (%edx)
 4276 262a 8B45F4   		movl	-12(%ebp), %eax
 4277 262d BA61170B 		movl	$_a_inst+5, %edx
 4277      00
 4278 2632 668902   		movw	%ax, (%edx)
 4279 2635 C7056817 		movl	$7, _a_inst_ptr
 4279      0B000700 
 4279      0000
 4280 263f EB2A     		jmp	L303
 4281              	L301:
 4282 2641 8B4508   		movl	8(%ebp), %eax
 4283 2644 A25C170B 		movb	%al, _a_inst
 4283      00
 4284 2649 8B55F4   		movl	-12(%ebp), %edx
 4285 264c A1E01B0B 		movl	_a_addr, %eax
 4285      00
 4286 2651 8B08     		movl	(%eax), %ecx
 4287 2653 89D0     		movl	%edx, %eax
 4288 2655 29C8     		subl	%ecx, %eax
 4289 2657 83E805   		subl	$5, %eax
 4290 265a BA5D170B 		movl	$_a_inst+1, %edx
 4290      00
 4291 265f 8902     		movl	%eax, (%edx)
 4292 2661 C7056817 		movl	$5, _a_inst_ptr
 4292      0B000500 
 4292      0000
 4293              	L303:
 4294 266b E8DDDDFF 		call	_a_objout
 4294      FF
 4295 2670 B8000000 		movl	$0, %eax
 4295      00
 4296              	L304:
 4297 2675 C9       		leave
 4298              		.cfi_restore 5
 4299              		.cfi_def_cfa 4, 4
 4300 2676 C3       		ret
 4301              		.cfi_endproc
GAS LISTING asm80386_x.s 			page 93


 4302              	LFE35:
 4303              		.globl	_a_op_TYPE5_a
 4304              		.def	_a_op_TYPE5_a;	.scl	2;	.type	32;	.endef
 4305              	_a_op_TYPE5_a:
 4306              	LFB36:
 4307              		.cfi_startproc
 4308 2677 55       		pushl	%ebp
 4309              		.cfi_def_cfa_offset 8
 4310              		.cfi_offset 5, -8
 4311 2678 89E5     		movl	%esp, %ebp
 4312              		.cfi_def_cfa_register 5
 4313 267a 83EC18   		subl	$24, %esp
 4314 267d 8B450C   		movl	12(%ebp), %eax
 4315 2680 8B00     		movl	(%eax), %eax
 4316 2682 83F801   		cmpl	$1, %eax
 4317 2685 752F     		jne	L306
 4318 2687 8B4508   		movl	8(%ebp), %eax
 4319 268a C1E808   		shrl	$8, %eax
 4320 268d A25C170B 		movb	%al, _a_inst
 4320      00
 4321 2692 8B4508   		movl	8(%ebp), %eax
 4322 2695 C1E810   		shrl	$16, %eax
 4323 2698 89C2     		movl	%eax, %edx
 4324 269a 8B450C   		movl	12(%ebp), %eax
 4325 269d 8B4004   		movl	4(%eax), %eax
 4326 26a0 09D0     		orl	%edx, %eax
 4327 26a2 83C8C0   		orl	$-64, %eax
 4328 26a5 A25D170B 		movb	%al, _a_inst+1
 4328      00
 4329 26aa C7056817 		movl	$2, _a_inst_ptr
 4329      0B000200 
 4329      0000
 4330 26b4 EB72     		jmp	L307
 4331              	L306:
 4332 26b6 8B450C   		movl	12(%ebp), %eax
 4333 26b9 8B00     		movl	(%eax), %eax
 4334 26bb 83F802   		cmpl	$2, %eax
 4335 26be 7525     		jne	L308
 4336 26c0 C6055C17 		movb	$102, _a_inst
 4336      0B0066
 4337 26c7 8B450C   		movl	12(%ebp), %eax
 4338 26ca 8B4004   		movl	4(%eax), %eax
 4339 26cd 89C2     		movl	%eax, %edx
 4340 26cf 8B4508   		movl	8(%ebp), %eax
 4341 26d2 09D0     		orl	%edx, %eax
 4342 26d4 A25D170B 		movb	%al, _a_inst+1
 4342      00
 4343 26d9 C7056817 		movl	$2, _a_inst_ptr
 4343      0B000200 
 4343      0000
 4344 26e3 EB43     		jmp	L307
 4345              	L308:
 4346 26e5 8B450C   		movl	12(%ebp), %eax
 4347 26e8 8B00     		movl	(%eax), %eax
 4348 26ea 83F803   		cmpl	$3, %eax
 4349 26ed 751E     		jne	L309
 4350 26ef 8B450C   		movl	12(%ebp), %eax
GAS LISTING asm80386_x.s 			page 94


 4351 26f2 8B4004   		movl	4(%eax), %eax
 4352 26f5 89C2     		movl	%eax, %edx
 4353 26f7 8B4508   		movl	8(%ebp), %eax
 4354 26fa 09D0     		orl	%edx, %eax
 4355 26fc A25C170B 		movb	%al, _a_inst
 4355      00
 4356 2701 C7056817 		movl	$1, _a_inst_ptr
 4356      0B000100 
 4356      0000
 4357 270b EB1B     		jmp	L307
 4358              	L309:
 4359 270d C7442404 		movl	$1469, 4(%esp)
 4359      BD050000 
 4360 2715 C7042405 		movl	$5, (%esp)
 4360      000000
 4361 271c E8F4D9FF 		call	_a_error_message
 4361      FF
 4362 2721 B8FFFFFF 		movl	$-1, %eax
 4362      FF
 4363 2726 EB05     		jmp	L310
 4364              	L307:
 4365 2728 B8000000 		movl	$0, %eax
 4365      00
 4366              	L310:
 4367 272d C9       		leave
 4368              		.cfi_restore 5
 4369              		.cfi_def_cfa 4, 4
 4370 272e C3       		ret
 4371              		.cfi_endproc
 4372              	LFE36:
 4373              		.globl	_a_op_TYPE5_b_sub
 4374              		.def	_a_op_TYPE5_b_sub;	.scl	2;	.type	32;	.endef
 4375              	_a_op_TYPE5_b_sub:
 4376              	LFB37:
 4377              		.cfi_startproc
 4378 272f 55       		pushl	%ebp
 4379              		.cfi_def_cfa_offset 8
 4380              		.cfi_offset 5, -8
 4381 2730 89E5     		movl	%esp, %ebp
 4382              		.cfi_def_cfa_register 5
 4383 2732 83EC18   		subl	$24, %esp
 4384 2735 8B450C   		movl	12(%ebp), %eax
 4385 2738 8B00     		movl	(%eax), %eax
 4386 273a 83E814   		subl	$20, %eax
 4387 273d 83F805   		cmpl	$5, %eax
 4388 2740 0F872F02 		ja	L312
 4388      0000
 4389 2746 8B0485B8 		movl	L314(,%eax,4), %eax
 4389      080000
 4390 274d FFE0     		jmp	*%eax
 4391              		.data
 4392              		.align 4
 4393              	L314:
 4394 08b8 4F270000 		.long	L319
 4395 08bc 95270000 		.long	L318
 4396 08c0 ED270000 		.long	L317
 4397 08c4 47280000 		.long	L316
GAS LISTING asm80386_x.s 			page 95


 4398 08c8 A0280000 		.long	L315
 4399 08cc 0B290000 		.long	L313
 4400              		.text
 4401              	L319:
 4402 274f 8B4508   		movl	8(%ebp), %eax
 4403 2752 C1F808   		sarl	$8, %eax
 4404 2755 89C2     		movl	%eax, %edx
 4405 2757 8B4510   		movl	16(%ebp), %eax
 4406 275a 09D0     		orl	%edx, %eax
 4407 275c 89C2     		movl	%eax, %edx
 4408 275e 8B4514   		movl	20(%ebp), %eax
 4409 2761 055C170B 		addl	$_a_inst, %eax
 4409      00
 4410 2766 8810     		movb	%dl, (%eax)
 4411 2768 8B450C   		movl	12(%ebp), %eax
 4412 276b 0FB6400C 		movzbl	12(%eax), %eax
 4413 276f 89C2     		movl	%eax, %edx
 4414 2771 8B4508   		movl	8(%ebp), %eax
 4415 2774 C1F810   		sarl	$16, %eax
 4416 2777 09C2     		orl	%eax, %edx
 4417 2779 8B4514   		movl	20(%ebp), %eax
 4418 277c 83C001   		addl	$1, %eax
 4419 277f 88905C17 		movb	%dl, _a_inst(%eax)
 4419      0B00
 4420 2785 8B4514   		movl	20(%ebp), %eax
 4421 2788 83C002   		addl	$2, %eax
 4422 278b A368170B 		movl	%eax, _a_inst_ptr
 4422      00
 4423 2790 E9FB0100 		jmp	L320
 4423      00
 4424              	L318:
 4425 2795 8B4508   		movl	8(%ebp), %eax
 4426 2798 C1F808   		sarl	$8, %eax
 4427 279b 89C2     		movl	%eax, %edx
 4428 279d 8B4510   		movl	16(%ebp), %eax
 4429 27a0 09D0     		orl	%edx, %eax
 4430 27a2 89C2     		movl	%eax, %edx
 4431 27a4 8B4514   		movl	20(%ebp), %eax
 4432 27a7 055C170B 		addl	$_a_inst, %eax
 4432      00
 4433 27ac 8810     		movb	%dl, (%eax)
 4434 27ae 8B450C   		movl	12(%ebp), %eax
 4435 27b1 0FB6400C 		movzbl	12(%eax), %eax
 4436 27b5 89C2     		movl	%eax, %edx
 4437 27b7 8B4508   		movl	8(%ebp), %eax
 4438 27ba C1F810   		sarl	$16, %eax
 4439 27bd 09C2     		orl	%eax, %edx
 4440 27bf 8B4514   		movl	20(%ebp), %eax
 4441 27c2 83C001   		addl	$1, %eax
 4442 27c5 88905C17 		movb	%dl, _a_inst(%eax)
 4442      0B00
 4443 27cb 8B450C   		movl	12(%ebp), %eax
 4444 27ce 8B5008   		movl	8(%eax), %edx
 4445 27d1 8B4514   		movl	20(%ebp), %eax
 4446 27d4 83C002   		addl	$2, %eax
 4447 27d7 88905C17 		movb	%dl, _a_inst(%eax)
 4447      0B00
GAS LISTING asm80386_x.s 			page 96


 4448 27dd 8B4514   		movl	20(%ebp), %eax
 4449 27e0 83C003   		addl	$3, %eax
 4450 27e3 A368170B 		movl	%eax, _a_inst_ptr
 4450      00
 4451 27e8 E9A30100 		jmp	L320
 4451      00
 4452              	L317:
 4453 27ed 8B4508   		movl	8(%ebp), %eax
 4454 27f0 C1F808   		sarl	$8, %eax
 4455 27f3 89C2     		movl	%eax, %edx
 4456 27f5 8B4510   		movl	16(%ebp), %eax
 4457 27f8 09D0     		orl	%edx, %eax
 4458 27fa 89C2     		movl	%eax, %edx
 4459 27fc 8B4514   		movl	20(%ebp), %eax
 4460 27ff 055C170B 		addl	$_a_inst, %eax
 4460      00
 4461 2804 8810     		movb	%dl, (%eax)
 4462 2806 8B450C   		movl	12(%ebp), %eax
 4463 2809 0FB6400C 		movzbl	12(%eax), %eax
 4464 280d 89C2     		movl	%eax, %edx
 4465 280f 8B4508   		movl	8(%ebp), %eax
 4466 2812 C1F810   		sarl	$16, %eax
 4467 2815 09C2     		orl	%eax, %edx
 4468 2817 8B4514   		movl	20(%ebp), %eax
 4469 281a 83C001   		addl	$1, %eax
 4470 281d 88905C17 		movb	%dl, _a_inst(%eax)
 4470      0B00
 4471 2823 8B4514   		movl	20(%ebp), %eax
 4472 2826 83C002   		addl	$2, %eax
 4473 2829 8D905C17 		leal	_a_inst(%eax), %edx
 4473      0B00
 4474 282f 8B450C   		movl	12(%ebp), %eax
 4475 2832 8B4008   		movl	8(%eax), %eax
 4476 2835 8902     		movl	%eax, (%edx)
 4477 2837 8B4514   		movl	20(%ebp), %eax
 4478 283a 83C006   		addl	$6, %eax
 4479 283d A368170B 		movl	%eax, _a_inst_ptr
 4479      00
 4480 2842 E9490100 		jmp	L320
 4480      00
 4481              	L316:
 4482 2847 8B4508   		movl	8(%ebp), %eax
 4483 284a C1F808   		sarl	$8, %eax
 4484 284d 89C2     		movl	%eax, %edx
 4485 284f 8B4510   		movl	16(%ebp), %eax
 4486 2852 09D0     		orl	%edx, %eax
 4487 2854 89C2     		movl	%eax, %edx
 4488 2856 8B4514   		movl	20(%ebp), %eax
 4489 2859 055C170B 		addl	$_a_inst, %eax
 4489      00
 4490 285e 8810     		movb	%dl, (%eax)
 4491 2860 8B450C   		movl	12(%ebp), %eax
 4492 2863 0FB6400C 		movzbl	12(%eax), %eax
 4493 2867 89C2     		movl	%eax, %edx
 4494 2869 8B4508   		movl	8(%ebp), %eax
 4495 286c C1F810   		sarl	$16, %eax
 4496 286f 09C2     		orl	%eax, %edx
GAS LISTING asm80386_x.s 			page 97


 4497 2871 8B4514   		movl	20(%ebp), %eax
 4498 2874 83C001   		addl	$1, %eax
 4499 2877 88905C17 		movb	%dl, _a_inst(%eax)
 4499      0B00
 4500 287d 8B4514   		movl	20(%ebp), %eax
 4501 2880 8D5002   		leal	2(%eax), %edx
 4502 2883 8B450C   		movl	12(%ebp), %eax
 4503 2886 0FB6400D 		movzbl	13(%eax), %eax
 4504 288a 88825C17 		movb	%al, _a_inst(%edx)
 4504      0B00
 4505 2890 8B4514   		movl	20(%ebp), %eax
 4506 2893 83C003   		addl	$3, %eax
 4507 2896 A368170B 		movl	%eax, _a_inst_ptr
 4507      00
 4508 289b E9F00000 		jmp	L320
 4508      00
 4509              	L315:
 4510 28a0 8B4508   		movl	8(%ebp), %eax
 4511 28a3 C1F808   		sarl	$8, %eax
 4512 28a6 89C2     		movl	%eax, %edx
 4513 28a8 8B4510   		movl	16(%ebp), %eax
 4514 28ab 09D0     		orl	%edx, %eax
 4515 28ad 89C2     		movl	%eax, %edx
 4516 28af 8B4514   		movl	20(%ebp), %eax
 4517 28b2 055C170B 		addl	$_a_inst, %eax
 4517      00
 4518 28b7 8810     		movb	%dl, (%eax)
 4519 28b9 8B450C   		movl	12(%ebp), %eax
 4520 28bc 0FB6400C 		movzbl	12(%eax), %eax
 4521 28c0 89C2     		movl	%eax, %edx
 4522 28c2 8B4508   		movl	8(%ebp), %eax
 4523 28c5 C1F810   		sarl	$16, %eax
 4524 28c8 09C2     		orl	%eax, %edx
 4525 28ca 8B4514   		movl	20(%ebp), %eax
 4526 28cd 83C001   		addl	$1, %eax
 4527 28d0 88905C17 		movb	%dl, _a_inst(%eax)
 4527      0B00
 4528 28d6 8B4514   		movl	20(%ebp), %eax
 4529 28d9 8D5002   		leal	2(%eax), %edx
 4530 28dc 8B450C   		movl	12(%ebp), %eax
 4531 28df 0FB6400D 		movzbl	13(%eax), %eax
 4532 28e3 88825C17 		movb	%al, _a_inst(%edx)
 4532      0B00
 4533 28e9 8B450C   		movl	12(%ebp), %eax
 4534 28ec 8B5008   		movl	8(%eax), %edx
 4535 28ef 8B4514   		movl	20(%ebp), %eax
 4536 28f2 83C003   		addl	$3, %eax
 4537 28f5 88905C17 		movb	%dl, _a_inst(%eax)
 4537      0B00
 4538 28fb 8B4514   		movl	20(%ebp), %eax
 4539 28fe 83C004   		addl	$4, %eax
 4540 2901 A368170B 		movl	%eax, _a_inst_ptr
 4540      00
 4541 2906 E9850000 		jmp	L320
 4541      00
 4542              	L313:
 4543 290b 8B4508   		movl	8(%ebp), %eax
GAS LISTING asm80386_x.s 			page 98


 4544 290e C1F808   		sarl	$8, %eax
 4545 2911 89C2     		movl	%eax, %edx
 4546 2913 8B4510   		movl	16(%ebp), %eax
 4547 2916 09D0     		orl	%edx, %eax
 4548 2918 89C2     		movl	%eax, %edx
 4549 291a 8B4514   		movl	20(%ebp), %eax
 4550 291d 055C170B 		addl	$_a_inst, %eax
 4550      00
 4551 2922 8810     		movb	%dl, (%eax)
 4552 2924 8B450C   		movl	12(%ebp), %eax
 4553 2927 0FB6400C 		movzbl	12(%eax), %eax
 4554 292b 89C2     		movl	%eax, %edx
 4555 292d 8B4508   		movl	8(%ebp), %eax
 4556 2930 C1F810   		sarl	$16, %eax
 4557 2933 09C2     		orl	%eax, %edx
 4558 2935 8B4514   		movl	20(%ebp), %eax
 4559 2938 83C001   		addl	$1, %eax
 4560 293b 88905C17 		movb	%dl, _a_inst(%eax)
 4560      0B00
 4561 2941 8B4514   		movl	20(%ebp), %eax
 4562 2944 8D5002   		leal	2(%eax), %edx
 4563 2947 8B450C   		movl	12(%ebp), %eax
 4564 294a 0FB6400D 		movzbl	13(%eax), %eax
 4565 294e 88825C17 		movb	%al, _a_inst(%edx)
 4565      0B00
 4566 2954 8B4514   		movl	20(%ebp), %eax
 4567 2957 83C003   		addl	$3, %eax
 4568 295a 8D905C17 		leal	_a_inst(%eax), %edx
 4568      0B00
 4569 2960 8B450C   		movl	12(%ebp), %eax
 4570 2963 8B4008   		movl	8(%eax), %eax
 4571 2966 8902     		movl	%eax, (%edx)
 4572 2968 8B4514   		movl	20(%ebp), %eax
 4573 296b 83C007   		addl	$7, %eax
 4574 296e A368170B 		movl	%eax, _a_inst_ptr
 4574      00
 4575 2973 EB1B     		jmp	L320
 4576              	L312:
 4577 2975 C7442404 		movl	$1516, 4(%esp)
 4577      EC050000 
 4578 297d C7042405 		movl	$5, (%esp)
 4578      000000
 4579 2984 E88CD7FF 		call	_a_error_message
 4579      FF
 4580 2989 B8FFFFFF 		movl	$-1, %eax
 4580      FF
 4581 298e EB05     		jmp	L321
 4582              	L320:
 4583 2990 B8000000 		movl	$0, %eax
 4583      00
 4584              	L321:
 4585 2995 C9       		leave
 4586              		.cfi_restore 5
 4587              		.cfi_def_cfa 4, 4
 4588 2996 C3       		ret
 4589              		.cfi_endproc
 4590              	LFE37:
GAS LISTING asm80386_x.s 			page 99


 4591              		.globl	_a_op_TYPE5_b
 4592              		.def	_a_op_TYPE5_b;	.scl	2;	.type	32;	.endef
 4593              	_a_op_TYPE5_b:
 4594              	LFB38:
 4595              		.cfi_startproc
 4596 2997 55       		pushl	%ebp
 4597              		.cfi_def_cfa_offset 8
 4598              		.cfi_offset 5, -8
 4599 2998 89E5     		movl	%esp, %ebp
 4600              		.cfi_def_cfa_register 5
 4601 299a 83EC18   		subl	$24, %esp
 4602 299d 837D0C01 		cmpl	$1, 12(%ebp)
 4603 29a1 752D     		jne	L323
 4604 29a3 8B4508   		movl	8(%ebp), %eax
 4605 29a6 C744240C 		movl	$0, 12(%esp)
 4605      00000000 
 4606 29ae C7442408 		movl	$0, 8(%esp)
 4606      00000000 
 4607 29b6 8B5510   		movl	16(%ebp), %edx
 4608 29b9 89542404 		movl	%edx, 4(%esp)
 4609 29bd 890424   		movl	%eax, (%esp)
 4610 29c0 E86AFDFF 		call	_a_op_TYPE5_b_sub
 4610      FF
 4611 29c5 85C0     		testl	%eax, %eax
 4612 29c7 7474     		je	L324
 4613 29c9 B8FFFFFF 		movl	$-1, %eax
 4613      FF
 4614 29ce EB72     		jmp	L325
 4615              	L323:
 4616 29d0 837D0C02 		cmpl	$2, 12(%ebp)
 4617 29d4 7534     		jne	L326
 4618 29d6 C6055C17 		movb	$102, _a_inst
 4618      0B0066
 4619 29dd 8B4508   		movl	8(%ebp), %eax
 4620 29e0 C744240C 		movl	$1, 12(%esp)
 4620      01000000 
 4621 29e8 C7442408 		movl	$1, 8(%esp)
 4621      01000000 
 4622 29f0 8B5510   		movl	16(%ebp), %edx
 4623 29f3 89542404 		movl	%edx, 4(%esp)
 4624 29f7 890424   		movl	%eax, (%esp)
 4625 29fa E830FDFF 		call	_a_op_TYPE5_b_sub
 4625      FF
 4626 29ff 85C0     		testl	%eax, %eax
 4627 2a01 743A     		je	L324
 4628 2a03 B8FFFFFF 		movl	$-1, %eax
 4628      FF
 4629 2a08 EB38     		jmp	L325
 4630              	L326:
 4631 2a0a 837D0C03 		cmpl	$3, 12(%ebp)
 4632 2a0e 752D     		jne	L324
 4633 2a10 8B4508   		movl	8(%ebp), %eax
 4634 2a13 C744240C 		movl	$0, 12(%esp)
 4634      00000000 
 4635 2a1b C7442408 		movl	$1, 8(%esp)
 4635      01000000 
 4636 2a23 8B5510   		movl	16(%ebp), %edx
GAS LISTING asm80386_x.s 			page 100


 4637 2a26 89542404 		movl	%edx, 4(%esp)
 4638 2a2a 890424   		movl	%eax, (%esp)
 4639 2a2d E8FDFCFF 		call	_a_op_TYPE5_b_sub
 4639      FF
 4640 2a32 85C0     		testl	%eax, %eax
 4641 2a34 7407     		je	L324
 4642 2a36 B8FFFFFF 		movl	$-1, %eax
 4642      FF
 4643 2a3b EB05     		jmp	L325
 4644              	L324:
 4645 2a3d B8000000 		movl	$0, %eax
 4645      00
 4646              	L325:
 4647 2a42 C9       		leave
 4648              		.cfi_restore 5
 4649              		.cfi_def_cfa 4, 4
 4650 2a43 C3       		ret
 4651              		.cfi_endproc
 4652              	LFE38:
 4653              		.globl	_a_op_TYPE5
 4654              		.def	_a_op_TYPE5;	.scl	2;	.type	32;	.endef
 4655              	_a_op_TYPE5:
 4656              	LFB39:
 4657              		.cfi_startproc
 4658 2a44 55       		pushl	%ebp
 4659              		.cfi_def_cfa_offset 8
 4660              		.cfi_offset 5, -8
 4661 2a45 89E5     		movl	%esp, %ebp
 4662              		.cfi_def_cfa_register 5
 4663 2a47 83EC38   		subl	$56, %esp
 4664 2a4a A1801B0B 		movl	_a_linebufp, %eax
 4664      00
 4665 2a4f 8945F4   		movl	%eax, -12(%ebp)
 4666 2a52 E8B6D7FF 		call	_a_getsym
 4666      FF
 4667 2a57 85C0     		testl	%eax, %eax
 4668 2a59 740A     		je	L328
 4669 2a5b B8FFFFFF 		movl	$-1, %eax
 4669      FF
 4670 2a60 E9240100 		jmp	L339
 4670      00
 4671              	L328:
 4672 2a65 E830D8FF 		call	_a_symsrch
 4672      FF
 4673 2a6a 8945F0   		movl	%eax, -16(%ebp)
 4674 2a6d 837DF000 		cmpl	$0, -16(%ebp)
 4675 2a71 0F88A300 		js	L330
 4675      0000
 4676 2a77 8B55F0   		movl	-16(%ebp), %edx
 4677 2a7a 89D0     		movl	%edx, %eax
 4678 2a7c C1E003   		sall	$3, %eax
 4679 2a7f 01D0     		addl	%edx, %eax
 4680 2a81 C1E003   		sall	$3, %eax
 4681 2a84 05400000 		addl	$_a_symtbl+64, %eax
 4681      00
 4682 2a89 8B00     		movl	(%eax), %eax
 4683 2a8b 3DEF0300 		cmpl	$1007, %eax
GAS LISTING asm80386_x.s 			page 101


 4683      00
 4684 2a90 0F858400 		jne	L330
 4684      0000
 4685 2a96 8B55F0   		movl	-16(%ebp), %edx
 4686 2a99 89D0     		movl	%edx, %eax
 4687 2a9b C1E003   		sall	$3, %eax
 4688 2a9e 01D0     		addl	%edx, %eax
 4689 2aa0 C1E003   		sall	$3, %eax
 4690 2aa3 05440000 		addl	$_a_symtbl+68, %eax
 4690      00
 4691 2aa8 8B00     		movl	(%eax), %eax
 4692 2aaa 8945EC   		movl	%eax, -20(%ebp)
 4693 2aad 8D45DC   		leal	-36(%ebp), %eax
 4694 2ab0 890424   		movl	%eax, (%esp)
 4695 2ab3 E844ECFF 		call	_a_get1operand
 4695      FF
 4696 2ab8 85C0     		testl	%eax, %eax
 4697 2aba 740A     		je	L331
 4698 2abc B8FFFFFF 		movl	$-1, %eax
 4698      FF
 4699 2ac1 E9C30000 		jmp	L339
 4699      00
 4700              	L331:
 4701 2ac6 8B45DC   		movl	-36(%ebp), %eax
 4702 2ac9 83F813   		cmpl	$19, %eax
 4703 2acc 7E2F     		jle	L332
 4704 2ace 8B45DC   		movl	-36(%ebp), %eax
 4705 2ad1 83F819   		cmpl	$25, %eax
 4706 2ad4 7F27     		jg	L332
 4707 2ad6 8D45DC   		leal	-36(%ebp), %eax
 4708 2ad9 89442408 		movl	%eax, 8(%esp)
 4709 2add 8B45EC   		movl	-20(%ebp), %eax
 4710 2ae0 89442404 		movl	%eax, 4(%esp)
 4711 2ae4 8B4508   		movl	8(%ebp), %eax
 4712 2ae7 890424   		movl	%eax, (%esp)
 4713 2aea E8A8FEFF 		call	_a_op_TYPE5_b
 4713      FF
 4714 2aef 85C0     		testl	%eax, %eax
 4715 2af1 7425     		je	L334
 4716 2af3 B8FFFFFF 		movl	$-1, %eax
 4716      FF
 4717 2af8 E98C0000 		jmp	L339
 4717      00
 4718              	L332:
 4719 2afd C7442404 		movl	$1567, 4(%esp)
 4719      1F060000 
 4720 2b05 C7042405 		movl	$5, (%esp)
 4720      000000
 4721 2b0c E804D6FF 		call	_a_error_message
 4721      FF
 4722 2b11 B8FFFFFF 		movl	$-1, %eax
 4722      FF
 4723 2b16 EB71     		jmp	L339
 4724              	L334:
 4725 2b18 EB65     		jmp	L335
 4726              	L330:
 4727 2b1a 8B45F4   		movl	-12(%ebp), %eax
GAS LISTING asm80386_x.s 			page 102


 4728 2b1d A3801B0B 		movl	%eax, _a_linebufp
 4728      00
 4729 2b22 8D45DC   		leal	-36(%ebp), %eax
 4730 2b25 890424   		movl	%eax, (%esp)
 4731 2b28 E8CFEBFF 		call	_a_get1operand
 4731      FF
 4732 2b2d 85C0     		testl	%eax, %eax
 4733 2b2f 7407     		je	L336
 4734 2b31 B8FFFFFF 		movl	$-1, %eax
 4734      FF
 4735 2b36 EB51     		jmp	L339
 4736              	L336:
 4737 2b38 8B45DC   		movl	-36(%ebp), %eax
 4738 2b3b 85C0     		testl	%eax, %eax
 4739 2b3d 7E25     		jle	L337
 4740 2b3f 8B45DC   		movl	-36(%ebp), %eax
 4741 2b42 83F803   		cmpl	$3, %eax
 4742 2b45 7F1D     		jg	L337
 4743 2b47 8D45DC   		leal	-36(%ebp), %eax
 4744 2b4a 89442404 		movl	%eax, 4(%esp)
 4745 2b4e 8B4508   		movl	8(%ebp), %eax
 4746 2b51 890424   		movl	%eax, (%esp)
 4747 2b54 E81EFBFF 		call	_a_op_TYPE5_a
 4747      FF
 4748 2b59 85C0     		testl	%eax, %eax
 4749 2b5b 7422     		je	L335
 4750 2b5d B8FFFFFF 		movl	$-1, %eax
 4750      FF
 4751 2b62 EB25     		jmp	L339
 4752              	L337:
 4753 2b64 C7442404 		movl	$1582, 4(%esp)
 4753      2E060000 
 4754 2b6c C7042405 		movl	$5, (%esp)
 4754      000000
 4755 2b73 E89DD5FF 		call	_a_error_message
 4755      FF
 4756 2b78 B8FFFFFF 		movl	$-1, %eax
 4756      FF
 4757 2b7d EB0A     		jmp	L339
 4758              	L335:
 4759 2b7f E8C9D8FF 		call	_a_objout
 4759      FF
 4760 2b84 B8000000 		movl	$0, %eax
 4760      00
 4761              	L339:
 4762 2b89 C9       		leave
 4763              		.cfi_restore 5
 4764              		.cfi_def_cfa 4, 4
 4765 2b8a C3       		ret
 4766              		.cfi_endproc
 4767              	LFE39:
 4768              		.globl	_a_op_TYPE6_a
 4769              		.def	_a_op_TYPE6_a;	.scl	2;	.type	32;	.endef
 4770              	_a_op_TYPE6_a:
 4771              	LFB40:
 4772              		.cfi_startproc
 4773 2b8b 55       		pushl	%ebp
GAS LISTING asm80386_x.s 			page 103


 4774              		.cfi_def_cfa_offset 8
 4775              		.cfi_offset 5, -8
 4776 2b8c 89E5     		movl	%esp, %ebp
 4777              		.cfi_def_cfa_register 5
 4778 2b8e 83EC18   		subl	$24, %esp
 4779 2b91 8B450C   		movl	12(%ebp), %eax
 4780 2b94 8B00     		movl	(%eax), %eax
 4781 2b96 83F801   		cmpl	$1, %eax
 4782 2b99 752F     		jne	L341
 4783 2b9b 8B4508   		movl	8(%ebp), %eax
 4784 2b9e A25C170B 		movb	%al, _a_inst
 4784      00
 4785 2ba3 8B4508   		movl	8(%ebp), %eax
 4786 2ba6 C1E808   		shrl	$8, %eax
 4787 2ba9 89C2     		movl	%eax, %edx
 4788 2bab 8B450C   		movl	12(%ebp), %eax
 4789 2bae 8B4004   		movl	4(%eax), %eax
 4790 2bb1 09D0     		orl	%edx, %eax
 4791 2bb3 83C8C0   		orl	$-64, %eax
 4792 2bb6 A25D170B 		movb	%al, _a_inst+1
 4792      00
 4793 2bbb C7056817 		movl	$2, _a_inst_ptr
 4793      0B000200 
 4793      0000
 4794 2bc5 E9940000 		jmp	L342
 4794      00
 4795              	L341:
 4796 2bca 8B450C   		movl	12(%ebp), %eax
 4797 2bcd 8B00     		movl	(%eax), %eax
 4798 2bcf 83F802   		cmpl	$2, %eax
 4799 2bd2 7536     		jne	L343
 4800 2bd4 C6055C17 		movb	$102, _a_inst
 4800      0B0066
 4801 2bdb 8B4508   		movl	8(%ebp), %eax
 4802 2bde 83C801   		orl	$1, %eax
 4803 2be1 A25D170B 		movb	%al, _a_inst+1
 4803      00
 4804 2be6 8B4508   		movl	8(%ebp), %eax
 4805 2be9 C1E808   		shrl	$8, %eax
 4806 2bec 89C2     		movl	%eax, %edx
 4807 2bee 8B450C   		movl	12(%ebp), %eax
 4808 2bf1 8B4004   		movl	4(%eax), %eax
 4809 2bf4 09D0     		orl	%edx, %eax
 4810 2bf6 83C8C0   		orl	$-64, %eax
 4811 2bf9 A25E170B 		movb	%al, _a_inst+2
 4811      00
 4812 2bfe C7056817 		movl	$3, _a_inst_ptr
 4812      0B000300 
 4812      0000
 4813 2c08 EB54     		jmp	L342
 4814              	L343:
 4815 2c0a 8B450C   		movl	12(%ebp), %eax
 4816 2c0d 8B00     		movl	(%eax), %eax
 4817 2c0f 83F803   		cmpl	$3, %eax
 4818 2c12 752F     		jne	L344
 4819 2c14 8B4508   		movl	8(%ebp), %eax
 4820 2c17 83C801   		orl	$1, %eax
GAS LISTING asm80386_x.s 			page 104


 4821 2c1a A25C170B 		movb	%al, _a_inst
 4821      00
 4822 2c1f 8B4508   		movl	8(%ebp), %eax
 4823 2c22 C1E808   		shrl	$8, %eax
 4824 2c25 89C2     		movl	%eax, %edx
 4825 2c27 8B450C   		movl	12(%ebp), %eax
 4826 2c2a 8B4004   		movl	4(%eax), %eax
 4827 2c2d 09D0     		orl	%edx, %eax
 4828 2c2f 83C8C0   		orl	$-64, %eax
 4829 2c32 A25D170B 		movb	%al, _a_inst+1
 4829      00
 4830 2c37 C7056817 		movl	$2, _a_inst_ptr
 4830      0B000200 
 4830      0000
 4831 2c41 EB1B     		jmp	L342
 4832              	L344:
 4833 2c43 C7442404 		movl	$1610, 4(%esp)
 4833      4A060000 
 4834 2c4b C7042405 		movl	$5, (%esp)
 4834      000000
 4835 2c52 E8BED4FF 		call	_a_error_message
 4835      FF
 4836 2c57 B8FFFFFF 		movl	$-1, %eax
 4836      FF
 4837 2c5c EB05     		jmp	L345
 4838              	L342:
 4839 2c5e B8000000 		movl	$0, %eax
 4839      00
 4840              	L345:
 4841 2c63 C9       		leave
 4842              		.cfi_restore 5
 4843              		.cfi_def_cfa 4, 4
 4844 2c64 C3       		ret
 4845              		.cfi_endproc
 4846              	LFE40:
 4847              		.globl	_a_op_TYPE6
 4848              		.def	_a_op_TYPE6;	.scl	2;	.type	32;	.endef
 4849              	_a_op_TYPE6:
 4850              	LFB41:
 4851              		.cfi_startproc
 4852 2c65 55       		pushl	%ebp
 4853              		.cfi_def_cfa_offset 8
 4854              		.cfi_offset 5, -8
 4855 2c66 89E5     		movl	%esp, %ebp
 4856              		.cfi_def_cfa_register 5
 4857 2c68 83EC38   		subl	$56, %esp
 4858 2c6b A1801B0B 		movl	_a_linebufp, %eax
 4858      00
 4859 2c70 8945F4   		movl	%eax, -12(%ebp)
 4860 2c73 E895D5FF 		call	_a_getsym
 4860      FF
 4861 2c78 85C0     		testl	%eax, %eax
 4862 2c7a 740A     		je	L347
 4863 2c7c B8FFFFFF 		movl	$-1, %eax
 4863      FF
 4864 2c81 E9290100 		jmp	L358
 4864      00
GAS LISTING asm80386_x.s 			page 105


 4865              	L347:
 4866 2c86 E80FD6FF 		call	_a_symsrch
 4866      FF
 4867 2c8b 8945F0   		movl	%eax, -16(%ebp)
 4868 2c8e 837DF000 		cmpl	$0, -16(%ebp)
 4869 2c92 0F88A800 		js	L349
 4869      0000
 4870 2c98 8B55F0   		movl	-16(%ebp), %edx
 4871 2c9b 89D0     		movl	%edx, %eax
 4872 2c9d C1E003   		sall	$3, %eax
 4873 2ca0 01D0     		addl	%edx, %eax
 4874 2ca2 C1E003   		sall	$3, %eax
 4875 2ca5 05400000 		addl	$_a_symtbl+64, %eax
 4875      00
 4876 2caa 8B00     		movl	(%eax), %eax
 4877 2cac 3DEF0300 		cmpl	$1007, %eax
 4877      00
 4878 2cb1 0F858900 		jne	L349
 4878      0000
 4879 2cb7 8B55F0   		movl	-16(%ebp), %edx
 4880 2cba 89D0     		movl	%edx, %eax
 4881 2cbc C1E003   		sall	$3, %eax
 4882 2cbf 01D0     		addl	%edx, %eax
 4883 2cc1 C1E003   		sall	$3, %eax
 4884 2cc4 05440000 		addl	$_a_symtbl+68, %eax
 4884      00
 4885 2cc9 8B00     		movl	(%eax), %eax
 4886 2ccb 8945EC   		movl	%eax, -20(%ebp)
 4887 2cce 8D45DC   		leal	-36(%ebp), %eax
 4888 2cd1 890424   		movl	%eax, (%esp)
 4889 2cd4 E823EAFF 		call	_a_get1operand
 4889      FF
 4890 2cd9 85C0     		testl	%eax, %eax
 4891 2cdb 740A     		je	L350
 4892 2cdd B8FFFFFF 		movl	$-1, %eax
 4892      FF
 4893 2ce2 E9C80000 		jmp	L358
 4893      00
 4894              	L350:
 4895 2ce7 8B45DC   		movl	-36(%ebp), %eax
 4896 2cea 83F813   		cmpl	$19, %eax
 4897 2ced 7E34     		jle	L351
 4898 2cef 8B45DC   		movl	-36(%ebp), %eax
 4899 2cf2 83F819   		cmpl	$25, %eax
 4900 2cf5 7F2C     		jg	L351
 4901 2cf7 8B4508   		movl	8(%ebp), %eax
 4902 2cfa C1E008   		sall	$8, %eax
 4903 2cfd 89C2     		movl	%eax, %edx
 4904 2cff 8D45DC   		leal	-36(%ebp), %eax
 4905 2d02 89442408 		movl	%eax, 8(%esp)
 4906 2d06 8B45EC   		movl	-20(%ebp), %eax
 4907 2d09 89442404 		movl	%eax, 4(%esp)
 4908 2d0d 891424   		movl	%edx, (%esp)
 4909 2d10 E882FCFF 		call	_a_op_TYPE5_b
 4909      FF
 4910 2d15 85C0     		testl	%eax, %eax
 4911 2d17 7425     		je	L353
GAS LISTING asm80386_x.s 			page 106


 4912 2d19 B8FFFFFF 		movl	$-1, %eax
 4912      FF
 4913 2d1e E98C0000 		jmp	L358
 4913      00
 4914              	L351:
 4915 2d23 C7442404 		movl	$1639, 4(%esp)
 4915      67060000 
 4916 2d2b C7042405 		movl	$5, (%esp)
 4916      000000
 4917 2d32 E8DED3FF 		call	_a_error_message
 4917      FF
 4918 2d37 B8FFFFFF 		movl	$-1, %eax
 4918      FF
 4919 2d3c EB71     		jmp	L358
 4920              	L353:
 4921 2d3e EB65     		jmp	L354
 4922              	L349:
 4923 2d40 8B45F4   		movl	-12(%ebp), %eax
 4924 2d43 A3801B0B 		movl	%eax, _a_linebufp
 4924      00
 4925 2d48 8D45DC   		leal	-36(%ebp), %eax
 4926 2d4b 890424   		movl	%eax, (%esp)
 4927 2d4e E8A9E9FF 		call	_a_get1operand
 4927      FF
 4928 2d53 85C0     		testl	%eax, %eax
 4929 2d55 7407     		je	L355
 4930 2d57 B8FFFFFF 		movl	$-1, %eax
 4930      FF
 4931 2d5c EB51     		jmp	L358
 4932              	L355:
 4933 2d5e 8B45DC   		movl	-36(%ebp), %eax
 4934 2d61 85C0     		testl	%eax, %eax
 4935 2d63 7E25     		jle	L356
 4936 2d65 8B45DC   		movl	-36(%ebp), %eax
 4937 2d68 83F803   		cmpl	$3, %eax
 4938 2d6b 7F1D     		jg	L356
 4939 2d6d 8D45DC   		leal	-36(%ebp), %eax
 4940 2d70 89442404 		movl	%eax, 4(%esp)
 4941 2d74 8B4508   		movl	8(%ebp), %eax
 4942 2d77 890424   		movl	%eax, (%esp)
 4943 2d7a E80CFEFF 		call	_a_op_TYPE6_a
 4943      FF
 4944 2d7f 85C0     		testl	%eax, %eax
 4945 2d81 7422     		je	L354
 4946 2d83 B8FFFFFF 		movl	$-1, %eax
 4946      FF
 4947 2d88 EB25     		jmp	L358
 4948              	L356:
 4949 2d8a C7442404 		movl	$1654, 4(%esp)
 4949      76060000 
 4950 2d92 C7042405 		movl	$5, (%esp)
 4950      000000
 4951 2d99 E877D3FF 		call	_a_error_message
 4951      FF
 4952 2d9e B8FFFFFF 		movl	$-1, %eax
 4952      FF
 4953 2da3 EB0A     		jmp	L358
GAS LISTING asm80386_x.s 			page 107


 4954              	L354:
 4955 2da5 E8A3D6FF 		call	_a_objout
 4955      FF
 4956 2daa B8000000 		movl	$0, %eax
 4956      00
 4957              	L358:
 4958 2daf C9       		leave
 4959              		.cfi_restore 5
 4960              		.cfi_def_cfa 4, 4
 4961 2db0 C3       		ret
 4962              		.cfi_endproc
 4963              	LFE41:
 4964              		.globl	_a_op_TYPE7
 4965              		.def	_a_op_TYPE7;	.scl	2;	.type	32;	.endef
 4966              	_a_op_TYPE7:
 4967              	LFB42:
 4968              		.cfi_startproc
 4969 2db1 55       		pushl	%ebp
 4970              		.cfi_def_cfa_offset 8
 4971              		.cfi_offset 5, -8
 4972 2db2 89E5     		movl	%esp, %ebp
 4973              		.cfi_def_cfa_register 5
 4974 2db4 83EC28   		subl	$40, %esp
 4975 2db7 8B4508   		movl	8(%ebp), %eax
 4976 2dba A25C170B 		movb	%al, _a_inst
 4976      00
 4977 2dbf 8D45F4   		leal	-12(%ebp), %eax
 4978 2dc2 890424   		movl	%eax, (%esp)
 4979 2dc5 E8ABDDFF 		call	_a_expr
 4979      FF
 4980 2dca 85C0     		testl	%eax, %eax
 4981 2dcc 7407     		je	L360
 4982 2dce B8FFFFFF 		movl	$-1, %eax
 4982      FF
 4983 2dd3 EB1C     		jmp	L362
 4984              	L360:
 4985 2dd5 8B45F4   		movl	-12(%ebp), %eax
 4986 2dd8 A25D170B 		movb	%al, _a_inst+1
 4986      00
 4987 2ddd C7056817 		movl	$2, _a_inst_ptr
 4987      0B000200 
 4987      0000
 4988 2de7 E861D6FF 		call	_a_objout
 4988      FF
 4989 2dec B8000000 		movl	$0, %eax
 4989      00
 4990              	L362:
 4991 2df1 C9       		leave
 4992              		.cfi_restore 5
 4993              		.cfi_def_cfa 4, 4
 4994 2df2 C3       		ret
 4995              		.cfi_endproc
 4996              	LFE42:
 4997              		.globl	_a_op_TYPE8
 4998              		.def	_a_op_TYPE8;	.scl	2;	.type	32;	.endef
 4999              	_a_op_TYPE8:
 5000              	LFB43:
GAS LISTING asm80386_x.s 			page 108


 5001              		.cfi_startproc
 5002 2df3 55       		pushl	%ebp
 5003              		.cfi_def_cfa_offset 8
 5004              		.cfi_offset 5, -8
 5005 2df4 89E5     		movl	%esp, %ebp
 5006              		.cfi_def_cfa_register 5
 5007 2df6 83EC28   		subl	$40, %esp
 5008 2df9 8D45F4   		leal	-12(%ebp), %eax
 5009 2dfc 890424   		movl	%eax, (%esp)
 5010 2dff E871DDFF 		call	_a_expr
 5010      FF
 5011 2e04 85C0     		testl	%eax, %eax
 5012 2e06 7407     		je	L364
 5013 2e08 B8FFFFFF 		movl	$-1, %eax
 5013      FF
 5014 2e0d EB37     		jmp	L366
 5015              	L364:
 5016 2e0f BA5C170B 		movl	$_a_inst, %edx
 5016      00
 5017 2e14 8B4508   		movl	8(%ebp), %eax
 5018 2e17 668902   		movw	%ax, (%edx)
 5019 2e1a 8B55F4   		movl	-12(%ebp), %edx
 5020 2e1d A1E01B0B 		movl	_a_addr, %eax
 5020      00
 5021 2e22 8B08     		movl	(%eax), %ecx
 5022 2e24 89D0     		movl	%edx, %eax
 5023 2e26 29C8     		subl	%ecx, %eax
 5024 2e28 83E806   		subl	$6, %eax
 5025 2e2b BA5E170B 		movl	$_a_inst+2, %edx
 5025      00
 5026 2e30 8902     		movl	%eax, (%edx)
 5027 2e32 C7056817 		movl	$6, _a_inst_ptr
 5027      0B000600 
 5027      0000
 5028 2e3c E80CD6FF 		call	_a_objout
 5028      FF
 5029 2e41 B8000000 		movl	$0, %eax
 5029      00
 5030              	L366:
 5031 2e46 C9       		leave
 5032              		.cfi_restore 5
 5033              		.cfi_def_cfa 4, 4
 5034 2e47 C3       		ret
 5035              		.cfi_endproc
 5036              	LFE43:
 5037              		.globl	_a_op_TYPE9_a
 5038              		.def	_a_op_TYPE9_a;	.scl	2;	.type	32;	.endef
 5039              	_a_op_TYPE9_a:
 5040              	LFB44:
 5041              		.cfi_startproc
 5042 2e48 55       		pushl	%ebp
 5043              		.cfi_def_cfa_offset 8
 5044              		.cfi_offset 5, -8
 5045 2e49 89E5     		movl	%esp, %ebp
 5046              		.cfi_def_cfa_register 5
 5047 2e4b 83EC18   		subl	$24, %esp
 5048 2e4e 8B450C   		movl	12(%ebp), %eax
GAS LISTING asm80386_x.s 			page 109


 5049 2e51 8B00     		movl	(%eax), %eax
 5050 2e53 83F801   		cmpl	$1, %eax
 5051 2e56 7520     		jne	L368
 5052 2e58 C6055C17 		movb	$-94, _a_inst
 5052      0B00A2
 5053 2e5f 8B4508   		movl	8(%ebp), %eax
 5054 2e62 8B4008   		movl	8(%eax), %eax
 5055 2e65 BA5D170B 		movl	$_a_inst+1, %edx
 5055      00
 5056 2e6a 8902     		movl	%eax, (%edx)
 5057 2e6c C7056817 		movl	$5, _a_inst_ptr
 5057      0B000500 
 5057      0000
 5058 2e76 EB76     		jmp	L369
 5059              	L368:
 5060 2e78 8B450C   		movl	12(%ebp), %eax
 5061 2e7b 8B00     		movl	(%eax), %eax
 5062 2e7d 83F802   		cmpl	$2, %eax
 5063 2e80 7527     		jne	L370
 5064 2e82 C6055C17 		movb	$102, _a_inst
 5064      0B0066
 5065 2e89 C6055D17 		movb	$-93, _a_inst+1
 5065      0B00A3
 5066 2e90 8B4508   		movl	8(%ebp), %eax
 5067 2e93 8B4008   		movl	8(%eax), %eax
 5068 2e96 BA5E170B 		movl	$_a_inst+2, %edx
 5068      00
 5069 2e9b 8902     		movl	%eax, (%edx)
 5070 2e9d C7056817 		movl	$6, _a_inst_ptr
 5070      0B000600 
 5070      0000
 5071 2ea7 EB45     		jmp	L369
 5072              	L370:
 5073 2ea9 8B450C   		movl	12(%ebp), %eax
 5074 2eac 8B00     		movl	(%eax), %eax
 5075 2eae 83F803   		cmpl	$3, %eax
 5076 2eb1 7520     		jne	L371
 5077 2eb3 C6055C17 		movb	$-93, _a_inst
 5077      0B00A3
 5078 2eba 8B4508   		movl	8(%ebp), %eax
 5079 2ebd 8B4008   		movl	8(%eax), %eax
 5080 2ec0 BA5D170B 		movl	$_a_inst+1, %edx
 5080      00
 5081 2ec5 8902     		movl	%eax, (%edx)
 5082 2ec7 C7056817 		movl	$5, _a_inst_ptr
 5082      0B000500 
 5082      0000
 5083 2ed1 EB1B     		jmp	L369
 5084              	L371:
 5085 2ed3 C7442404 		movl	$1712, 4(%esp)
 5085      B0060000 
 5086 2edb C7042405 		movl	$5, (%esp)
 5086      000000
 5087 2ee2 E82ED2FF 		call	_a_error_message
 5087      FF
 5088 2ee7 B8FFFFFF 		movl	$-1, %eax
 5088      FF
GAS LISTING asm80386_x.s 			page 110


 5089 2eec EB05     		jmp	L372
 5090              	L369:
 5091 2eee B8000000 		movl	$0, %eax
 5091      00
 5092              	L372:
 5093 2ef3 C9       		leave
 5094              		.cfi_restore 5
 5095              		.cfi_def_cfa 4, 4
 5096 2ef4 C3       		ret
 5097              		.cfi_endproc
 5098              	LFE44:
 5099              		.globl	_a_op_TYPE9_b
 5100              		.def	_a_op_TYPE9_b;	.scl	2;	.type	32;	.endef
 5101              	_a_op_TYPE9_b:
 5102              	LFB45:
 5103              		.cfi_startproc
 5104 2ef5 55       		pushl	%ebp
 5105              		.cfi_def_cfa_offset 8
 5106              		.cfi_offset 5, -8
 5107 2ef6 89E5     		movl	%esp, %ebp
 5108              		.cfi_def_cfa_register 5
 5109 2ef8 83EC18   		subl	$24, %esp
 5110 2efb 8B4508   		movl	8(%ebp), %eax
 5111 2efe 8B00     		movl	(%eax), %eax
 5112 2f00 83F801   		cmpl	$1, %eax
 5113 2f03 7520     		jne	L374
 5114 2f05 C6055C17 		movb	$-96, _a_inst
 5114      0B00A0
 5115 2f0c 8B450C   		movl	12(%ebp), %eax
 5116 2f0f 8B4008   		movl	8(%eax), %eax
 5117 2f12 BA5D170B 		movl	$_a_inst+1, %edx
 5117      00
 5118 2f17 8902     		movl	%eax, (%edx)
 5119 2f19 C7056817 		movl	$5, _a_inst_ptr
 5119      0B000500 
 5119      0000
 5120 2f23 EB76     		jmp	L375
 5121              	L374:
 5122 2f25 8B4508   		movl	8(%ebp), %eax
 5123 2f28 8B00     		movl	(%eax), %eax
 5124 2f2a 83F802   		cmpl	$2, %eax
 5125 2f2d 7527     		jne	L376
 5126 2f2f C6055C17 		movb	$102, _a_inst
 5126      0B0066
 5127 2f36 C6055D17 		movb	$-95, _a_inst+1
 5127      0B00A1
 5128 2f3d 8B450C   		movl	12(%ebp), %eax
 5129 2f40 8B4008   		movl	8(%eax), %eax
 5130 2f43 BA5E170B 		movl	$_a_inst+2, %edx
 5130      00
 5131 2f48 8902     		movl	%eax, (%edx)
 5132 2f4a C7056817 		movl	$6, _a_inst_ptr
 5132      0B000600 
 5132      0000
 5133 2f54 EB45     		jmp	L375
 5134              	L376:
 5135 2f56 8B4508   		movl	8(%ebp), %eax
GAS LISTING asm80386_x.s 			page 111


 5136 2f59 8B00     		movl	(%eax), %eax
 5137 2f5b 83F803   		cmpl	$3, %eax
 5138 2f5e 7520     		jne	L377
 5139 2f60 C6055C17 		movb	$-95, _a_inst
 5139      0B00A1
 5140 2f67 8B450C   		movl	12(%ebp), %eax
 5141 2f6a 8B4008   		movl	8(%eax), %eax
 5142 2f6d BA5D170B 		movl	$_a_inst+1, %edx
 5142      00
 5143 2f72 8902     		movl	%eax, (%edx)
 5144 2f74 C7056817 		movl	$5, _a_inst_ptr
 5144      0B000500 
 5144      0000
 5145 2f7e EB1B     		jmp	L375
 5146              	L377:
 5147 2f80 C7442404 		movl	$1738, 4(%esp)
 5147      CA060000 
 5148 2f88 C7042405 		movl	$5, (%esp)
 5148      000000
 5149 2f8f E881D1FF 		call	_a_error_message
 5149      FF
 5150 2f94 B8FFFFFF 		movl	$-1, %eax
 5150      FF
 5151 2f99 EB05     		jmp	L378
 5152              	L375:
 5153 2f9b B8000000 		movl	$0, %eax
 5153      00
 5154              	L378:
 5155 2fa0 C9       		leave
 5156              		.cfi_restore 5
 5157              		.cfi_def_cfa 4, 4
 5158 2fa1 C3       		ret
 5159              		.cfi_endproc
 5160              	LFE45:
 5161              		.globl	_a_op_TYPE9_c
 5162              		.def	_a_op_TYPE9_c;	.scl	2;	.type	32;	.endef
 5163              	_a_op_TYPE9_c:
 5164              	LFB46:
 5165              		.cfi_startproc
 5166 2fa2 55       		pushl	%ebp
 5167              		.cfi_def_cfa_offset 8
 5168              		.cfi_offset 5, -8
 5169 2fa3 89E5     		movl	%esp, %ebp
 5170              		.cfi_def_cfa_register 5
 5171 2fa5 83EC18   		subl	$24, %esp
 5172 2fa8 8B4508   		movl	8(%ebp), %eax
 5173 2fab 8B00     		movl	(%eax), %eax
 5174 2fad 83F801   		cmpl	$1, %eax
 5175 2fb0 7528     		jne	L380
 5176 2fb2 8B4508   		movl	8(%ebp), %eax
 5177 2fb5 8B4004   		movl	4(%eax), %eax
 5178 2fb8 83C8B0   		orl	$-80, %eax
 5179 2fbb A25C170B 		movb	%al, _a_inst
 5179      00
 5180 2fc0 8B450C   		movl	12(%ebp), %eax
 5181 2fc3 8B4008   		movl	8(%eax), %eax
 5182 2fc6 A25D170B 		movb	%al, _a_inst+1
GAS LISTING asm80386_x.s 			page 112


 5182      00
 5183 2fcb C7056817 		movl	$2, _a_inst_ptr
 5183      0B000200 
 5183      0000
 5184 2fd5 E9850000 		jmp	L381
 5184      00
 5185              	L380:
 5186 2fda 8B4508   		movl	8(%ebp), %eax
 5187 2fdd 8B00     		movl	(%eax), %eax
 5188 2fdf 83F802   		cmpl	$2, %eax
 5189 2fe2 752F     		jne	L382
 5190 2fe4 C6055C17 		movb	$102, _a_inst
 5190      0B0066
 5191 2feb 8B4508   		movl	8(%ebp), %eax
 5192 2fee 8B4004   		movl	4(%eax), %eax
 5193 2ff1 83C8B8   		orl	$-72, %eax
 5194 2ff4 A25D170B 		movb	%al, _a_inst+1
 5194      00
 5195 2ff9 8B450C   		movl	12(%ebp), %eax
 5196 2ffc 8B4008   		movl	8(%eax), %eax
 5197 2fff BA5E170B 		movl	$_a_inst+2, %edx
 5197      00
 5198 3004 668902   		movw	%ax, (%edx)
 5199 3007 C7056817 		movl	$4, _a_inst_ptr
 5199      0B000400 
 5199      0000
 5200 3011 EB4C     		jmp	L381
 5201              	L382:
 5202 3013 8B4508   		movl	8(%ebp), %eax
 5203 3016 8B00     		movl	(%eax), %eax
 5204 3018 83F803   		cmpl	$3, %eax
 5205 301b 7527     		jne	L383
 5206 301d 8B4508   		movl	8(%ebp), %eax
 5207 3020 8B4004   		movl	4(%eax), %eax
 5208 3023 83C8B8   		orl	$-72, %eax
 5209 3026 A25C170B 		movb	%al, _a_inst
 5209      00
 5210 302b 8B450C   		movl	12(%ebp), %eax
 5211 302e 8B4008   		movl	8(%eax), %eax
 5212 3031 BA5D170B 		movl	$_a_inst+1, %edx
 5212      00
 5213 3036 8902     		movl	%eax, (%edx)
 5214 3038 C7056817 		movl	$5, _a_inst_ptr
 5214      0B000500 
 5214      0000
 5215 3042 EB1B     		jmp	L381
 5216              	L383:
 5217 3044 C7442404 		movl	$1764, 4(%esp)
 5217      E4060000 
 5218 304c C7042405 		movl	$5, (%esp)
 5218      000000
 5219 3053 E8BDD0FF 		call	_a_error_message
 5219      FF
 5220 3058 B8FFFFFF 		movl	$-1, %eax
 5220      FF
 5221 305d EB05     		jmp	L384
 5222              	L381:
GAS LISTING asm80386_x.s 			page 113


 5223 305f B8000000 		movl	$0, %eax
 5223      00
 5224              	L384:
 5225 3064 C9       		leave
 5226              		.cfi_restore 5
 5227              		.cfi_def_cfa 4, 4
 5228 3065 C3       		ret
 5229              		.cfi_endproc
 5230              	LFE46:
 5231              		.globl	_a_op_TYPE9_d
 5232              		.def	_a_op_TYPE9_d;	.scl	2;	.type	32;	.endef
 5233              	_a_op_TYPE9_d:
 5234              	LFB47:
 5235              		.cfi_startproc
 5236 3066 55       		pushl	%ebp
 5237              		.cfi_def_cfa_offset 8
 5238              		.cfi_offset 5, -8
 5239 3067 89E5     		movl	%esp, %ebp
 5240              		.cfi_def_cfa_register 5
 5241 3069 83EC48   		subl	$72, %esp
 5242 306c A1801B0B 		movl	_a_linebufp, %eax
 5242      00
 5243 3071 8945F4   		movl	%eax, -12(%ebp)
 5244 3074 E887CFFF 		call	_a_spskip
 5244      FF
 5245 3079 E8F1D0FF 		call	_is_symtop
 5245      FF
 5246 307e 85C0     		testl	%eax, %eax
 5247 3080 750A     		jne	L386
 5248 3082 B8000000 		movl	$0, %eax
 5248      00
 5249 3087 E9CE0100 		jmp	L402
 5249      00
 5250              	L386:
 5251 308c E87CD1FF 		call	_a_getsym
 5251      FF
 5252 3091 85C0     		testl	%eax, %eax
 5253 3093 740A     		je	L388
 5254 3095 B8FFFFFF 		movl	$-1, %eax
 5254      FF
 5255 309a E9BB0100 		jmp	L402
 5255      00
 5256              	L388:
 5257 309f E8F6D1FF 		call	_a_symsrch
 5257      FF
 5258 30a4 8945F0   		movl	%eax, -16(%ebp)
 5259 30a7 837DF000 		cmpl	$0, -16(%ebp)
 5260 30ab 0F889401 		js	L389
 5260      0000
 5261 30b1 8B55F0   		movl	-16(%ebp), %edx
 5262 30b4 89D0     		movl	%edx, %eax
 5263 30b6 C1E003   		sall	$3, %eax
 5264 30b9 01D0     		addl	%edx, %eax
 5265 30bb C1E003   		sall	$3, %eax
 5266 30be 05400000 		addl	$_a_symtbl+64, %eax
 5266      00
 5267 30c3 8B00     		movl	(%eax), %eax
GAS LISTING asm80386_x.s 			page 114


 5268 30c5 3DEF0300 		cmpl	$1007, %eax
 5268      00
 5269 30ca 0F857501 		jne	L389
 5269      0000
 5270 30d0 8B55F0   		movl	-16(%ebp), %edx
 5271 30d3 89D0     		movl	%edx, %eax
 5272 30d5 C1E003   		sall	$3, %eax
 5273 30d8 01D0     		addl	%edx, %eax
 5274 30da C1E003   		sall	$3, %eax
 5275 30dd 05440000 		addl	$_a_symtbl+68, %eax
 5275      00
 5276 30e2 8B00     		movl	(%eax), %eax
 5277 30e4 8945EC   		movl	%eax, -20(%ebp)
 5278 30e7 8D45DC   		leal	-36(%ebp), %eax
 5279 30ea 890424   		movl	%eax, (%esp)
 5280 30ed E80AE6FF 		call	_a_get1operand
 5280      FF
 5281 30f2 85C0     		testl	%eax, %eax
 5282 30f4 740A     		je	L390
 5283 30f6 B8FFFFFF 		movl	$-1, %eax
 5283      FF
 5284 30fb E95A0100 		jmp	L402
 5284      00
 5285              	L390:
 5286 3100 8B45DC   		movl	-36(%ebp), %eax
 5287 3103 83F813   		cmpl	$19, %eax
 5288 3106 7E30     		jle	L391
 5289 3108 8B45DC   		movl	-36(%ebp), %eax
 5290 310b 83F819   		cmpl	$25, %eax
 5291 310e 7F28     		jg	L391
 5292 3110 8D45DC   		leal	-36(%ebp), %eax
 5293 3113 89442408 		movl	%eax, 8(%esp)
 5294 3117 8B45EC   		movl	-20(%ebp), %eax
 5295 311a 89442404 		movl	%eax, 4(%esp)
 5296 311e C7042400 		movl	$50688, (%esp)
 5296      C60000
 5297 3125 E86DF8FF 		call	_a_op_TYPE5_b
 5297      FF
 5298 312a 85C0     		testl	%eax, %eax
 5299 312c 7428     		je	L393
 5300 312e B8FFFFFF 		movl	$-1, %eax
 5300      FF
 5301 3133 E9220100 		jmp	L402
 5301      00
 5302              	L391:
 5303 3138 C7442404 		movl	$1798, 4(%esp)
 5303      06070000 
 5304 3140 C7042405 		movl	$5, (%esp)
 5304      000000
 5305 3147 E8C9CFFF 		call	_a_error_message
 5305      FF
 5306 314c B8FFFFFF 		movl	$-1, %eax
 5306      FF
 5307 3151 E9040100 		jmp	L402
 5307      00
 5308              	L393:
 5309 3156 E8A5CEFF 		call	_a_spskip
GAS LISTING asm80386_x.s 			page 115


 5309      FF
 5310 315b A1801B0B 		movl	_a_linebufp, %eax
 5310      00
 5311 3160 0FB600   		movzbl	(%eax), %eax
 5312 3163 3C2C     		cmpb	$44, %al
 5313 3165 741E     		je	L394
 5314 3167 C7442404 		movl	$1803, 4(%esp)
 5314      0B070000 
 5315 316f C7042405 		movl	$5, (%esp)
 5315      000000
 5316 3176 E89ACFFF 		call	_a_error_message
 5316      FF
 5317 317b B8FFFFFF 		movl	$-1, %eax
 5317      FF
 5318 3180 E9D50000 		jmp	L402
 5318      00
 5319              	L394:
 5320 3185 A1801B0B 		movl	_a_linebufp, %eax
 5320      00
 5321 318a 83C001   		addl	$1, %eax
 5322 318d A3801B0B 		movl	%eax, _a_linebufp
 5322      00
 5323 3192 8D45CC   		leal	-52(%ebp), %eax
 5324 3195 890424   		movl	%eax, (%esp)
 5325 3198 E85FE5FF 		call	_a_get1operand
 5325      FF
 5326 319d 85C0     		testl	%eax, %eax
 5327 319f 740A     		je	L395
 5328 31a1 B8FFFFFF 		movl	$-1, %eax
 5328      FF
 5329 31a6 E9AF0000 		jmp	L402
 5329      00
 5330              	L395:
 5331 31ab 8B45CC   		movl	-52(%ebp), %eax
 5332 31ae 83F809   		cmpl	$9, %eax
 5333 31b1 7E08     		jle	L396
 5334 31b3 8B45CC   		movl	-52(%ebp), %eax
 5335 31b6 83F80C   		cmpl	$12, %eax
 5336 31b9 7E1E     		jle	L397
 5337              	L396:
 5338 31bb C7442404 		movl	$1811, 4(%esp)
 5338      13070000 
 5339 31c3 C7042405 		movl	$5, (%esp)
 5339      000000
 5340 31ca E846CFFF 		call	_a_error_message
 5340      FF
 5341 31cf B8FFFFFF 		movl	$-1, %eax
 5341      FF
 5342 31d4 E9810000 		jmp	L402
 5342      00
 5343              	L397:
 5344 31d9 837DEC01 		cmpl	$1, -20(%ebp)
 5345 31dd 751D     		jne	L398
 5346 31df 8B55D4   		movl	-44(%ebp), %edx
 5347 31e2 A168170B 		movl	_a_inst_ptr, %eax
 5347      00
 5348 31e7 88905C17 		movb	%dl, _a_inst(%eax)
GAS LISTING asm80386_x.s 			page 116


 5348      0B00
 5349 31ed A168170B 		movl	_a_inst_ptr, %eax
 5349      00
 5350 31f2 83C001   		addl	$1, %eax
 5351 31f5 A368170B 		movl	%eax, _a_inst_ptr
 5351      00
 5352 31fa EB58     		jmp	L403
 5353              	L398:
 5354 31fc 837DEC02 		cmpl	$2, -20(%ebp)
 5355 3200 751F     		jne	L400
 5356 3202 8B55D4   		movl	-44(%ebp), %edx
 5357 3205 A168170B 		movl	_a_inst_ptr, %eax
 5357      00
 5358 320a 055C170B 		addl	$_a_inst, %eax
 5358      00
 5359 320f 668910   		movw	%dx, (%eax)
 5360 3212 A168170B 		movl	_a_inst_ptr, %eax
 5360      00
 5361 3217 83C002   		addl	$2, %eax
 5362 321a A368170B 		movl	%eax, _a_inst_ptr
 5362      00
 5363 321f EB33     		jmp	L403
 5364              	L400:
 5365 3221 837DEC03 		cmpl	$3, -20(%ebp)
 5366 3225 752D     		jne	L403
 5367 3227 8B55D4   		movl	-44(%ebp), %edx
 5368 322a A168170B 		movl	_a_inst_ptr, %eax
 5368      00
 5369 322f 055C170B 		addl	$_a_inst, %eax
 5369      00
 5370 3234 8910     		movl	%edx, (%eax)
 5371 3236 A168170B 		movl	_a_inst_ptr, %eax
 5371      00
 5372 323b 83C004   		addl	$4, %eax
 5373 323e A368170B 		movl	%eax, _a_inst_ptr
 5373      00
 5374 3243 EB0F     		jmp	L403
 5375              	L389:
 5376 3245 8B45F4   		movl	-12(%ebp), %eax
 5377 3248 A3801B0B 		movl	%eax, _a_linebufp
 5377      00
 5378 324d B8000000 		movl	$0, %eax
 5378      00
 5379 3252 EB06     		jmp	L402
 5380              	L403:
 5381 3254 90       		nop
 5382 3255 B8010000 		movl	$1, %eax
 5382      00
 5383              	L402:
 5384 325a C9       		leave
 5385              		.cfi_restore 5
 5386              		.cfi_def_cfa 4, 4
 5387 325b C3       		ret
 5388              		.cfi_endproc
 5389              	LFE47:
 5390              		.globl	_a_op_TYPE9
 5391              		.def	_a_op_TYPE9;	.scl	2;	.type	32;	.endef
GAS LISTING asm80386_x.s 			page 117


 5392              	_a_op_TYPE9:
 5393              	LFB48:
 5394              		.cfi_startproc
 5395 325c 55       		pushl	%ebp
 5396              		.cfi_def_cfa_offset 8
 5397              		.cfi_offset 5, -8
 5398 325d 89E5     		movl	%esp, %ebp
 5399              		.cfi_def_cfa_register 5
 5400 325f 83EC38   		subl	$56, %esp
 5401 3262 E8FFFDFF 		call	_a_op_TYPE9_d
 5401      FF
 5402 3267 85C0     		testl	%eax, %eax
 5403 3269 740F     		je	L405
 5404 326b E8DDD1FF 		call	_a_objout
 5404      FF
 5405 3270 B8000000 		movl	$0, %eax
 5405      00
 5406 3275 E93C0200 		jmp	L423
 5406      00
 5407              	L405:
 5408 327a 8D45E8   		leal	-24(%ebp), %eax
 5409 327d 890424   		movl	%eax, (%esp)
 5410 3280 E877E4FF 		call	_a_get1operand
 5410      FF
 5411 3285 85C0     		testl	%eax, %eax
 5412 3287 740A     		je	L407
 5413 3289 B8FFFFFF 		movl	$-1, %eax
 5413      FF
 5414 328e E9230200 		jmp	L423
 5414      00
 5415              	L407:
 5416 3293 E868CDFF 		call	_a_spskip
 5416      FF
 5417 3298 A1801B0B 		movl	_a_linebufp, %eax
 5417      00
 5418 329d 0FB600   		movzbl	(%eax), %eax
 5419 32a0 3C2C     		cmpb	$44, %al
 5420 32a2 741E     		je	L408
 5421 32a4 C7442404 		movl	$1849, 4(%esp)
 5421      39070000 
 5422 32ac C7042405 		movl	$5, (%esp)
 5422      000000
 5423 32b3 E85DCEFF 		call	_a_error_message
 5423      FF
 5424 32b8 B8FFFFFF 		movl	$-1, %eax
 5424      FF
 5425 32bd E9F40100 		jmp	L423
 5425      00
 5426              	L408:
 5427 32c2 A1801B0B 		movl	_a_linebufp, %eax
 5427      00
 5428 32c7 83C001   		addl	$1, %eax
 5429 32ca A3801B0B 		movl	%eax, _a_linebufp
 5429      00
 5430 32cf 8D45D8   		leal	-40(%ebp), %eax
 5431 32d2 890424   		movl	%eax, (%esp)
 5432 32d5 E822E4FF 		call	_a_get1operand
GAS LISTING asm80386_x.s 			page 118


 5432      FF
 5433 32da 85C0     		testl	%eax, %eax
 5434 32dc 740A     		je	L409
 5435 32de B8FFFFFF 		movl	$-1, %eax
 5435      FF
 5436 32e3 E9CE0100 		jmp	L423
 5436      00
 5437              	L409:
 5438 32e8 8B45E8   		movl	-24(%ebp), %eax
 5439 32eb 83F816   		cmpl	$22, %eax
 5440 32ee 7542     		jne	L410
 5441 32f0 0FB645F4 		movzbl	-12(%ebp), %eax
 5442 32f4 3C05     		cmpb	$5, %al
 5443 32f6 753A     		jne	L410
 5444 32f8 8B45D8   		movl	-40(%ebp), %eax
 5445 32fb 85C0     		testl	%eax, %eax
 5446 32fd 7E33     		jle	L410
 5447 32ff 8B45D8   		movl	-40(%ebp), %eax
 5448 3302 83F803   		cmpl	$3, %eax
 5449 3305 7F2B     		jg	L410
 5450 3307 8B45DC   		movl	-36(%ebp), %eax
 5451 330a 85C0     		testl	%eax, %eax
 5452 330c 7524     		jne	L410
 5453 330e 8D45D8   		leal	-40(%ebp), %eax
 5454 3311 89442404 		movl	%eax, 4(%esp)
 5455 3315 8D45E8   		leal	-24(%ebp), %eax
 5456 3318 890424   		movl	%eax, (%esp)
 5457 331b E828FBFF 		call	_a_op_TYPE9_a
 5457      FF
 5458 3320 85C0     		testl	%eax, %eax
 5459 3322 0F848401 		je	L412
 5459      0000
 5460 3328 B8FFFFFF 		movl	$-1, %eax
 5460      FF
 5461 332d E9840100 		jmp	L423
 5461      00
 5462              	L410:
 5463 3332 8B45E8   		movl	-24(%ebp), %eax
 5464 3335 85C0     		testl	%eax, %eax
 5465 3337 7E43     		jle	L413
 5466 3339 8B45E8   		movl	-24(%ebp), %eax
 5467 333c 83F803   		cmpl	$3, %eax
 5468 333f 7F3B     		jg	L413
 5469 3341 8B45EC   		movl	-20(%ebp), %eax
 5470 3344 85C0     		testl	%eax, %eax
 5471 3346 7534     		jne	L413
 5472 3348 8B45D8   		movl	-40(%ebp), %eax
 5473 334b 83F816   		cmpl	$22, %eax
 5474 334e 752C     		jne	L413
 5475 3350 0FB645E4 		movzbl	-28(%ebp), %eax
 5476 3354 3C05     		cmpb	$5, %al
 5477 3356 7524     		jne	L413
 5478 3358 8D45D8   		leal	-40(%ebp), %eax
 5479 335b 89442404 		movl	%eax, 4(%esp)
 5480 335f 8D45E8   		leal	-24(%ebp), %eax
 5481 3362 890424   		movl	%eax, (%esp)
 5482 3365 E88BFBFF 		call	_a_op_TYPE9_b
GAS LISTING asm80386_x.s 			page 119


 5482      FF
 5483 336a 85C0     		testl	%eax, %eax
 5484 336c 0F843A01 		je	L412
 5484      0000
 5485 3372 B8FFFFFF 		movl	$-1, %eax
 5485      FF
 5486 3377 E93A0100 		jmp	L423
 5486      00
 5487              	L413:
 5488 337c 8B45E8   		movl	-24(%ebp), %eax
 5489 337f 85C0     		testl	%eax, %eax
 5490 3381 7E3C     		jle	L415
 5491 3383 8B45E8   		movl	-24(%ebp), %eax
 5492 3386 83F803   		cmpl	$3, %eax
 5493 3389 7F34     		jg	L415
 5494 338b 8B45D8   		movl	-40(%ebp), %eax
 5495 338e 83F809   		cmpl	$9, %eax
 5496 3391 7E2C     		jle	L415
 5497 3393 8B45D8   		movl	-40(%ebp), %eax
 5498 3396 83F80C   		cmpl	$12, %eax
 5499 3399 7F24     		jg	L415
 5500 339b 8D45D8   		leal	-40(%ebp), %eax
 5501 339e 89442404 		movl	%eax, 4(%esp)
 5502 33a2 8D45E8   		leal	-24(%ebp), %eax
 5503 33a5 890424   		movl	%eax, (%esp)
 5504 33a8 E8F5FBFF 		call	_a_op_TYPE9_c
 5504      FF
 5505 33ad 85C0     		testl	%eax, %eax
 5506 33af 0F84F700 		je	L412
 5506      0000
 5507 33b5 B8FFFFFF 		movl	$-1, %eax
 5507      FF
 5508 33ba E9F70000 		jmp	L423
 5508      00
 5509              	L415:
 5510 33bf 8B45E8   		movl	-24(%ebp), %eax
 5511 33c2 85C0     		testl	%eax, %eax
 5512 33c4 7E44     		jle	L417
 5513 33c6 8B45E8   		movl	-24(%ebp), %eax
 5514 33c9 83F803   		cmpl	$3, %eax
 5515 33cc 7F3C     		jg	L417
 5516 33ce 8B45D8   		movl	-40(%ebp), %eax
 5517 33d1 83F813   		cmpl	$19, %eax
 5518 33d4 7E34     		jle	L417
 5519 33d6 8B45D8   		movl	-40(%ebp), %eax
 5520 33d9 83F819   		cmpl	$25, %eax
 5521 33dc 7F2C     		jg	L417
 5522 33de 8D45D8   		leal	-40(%ebp), %eax
 5523 33e1 89442408 		movl	%eax, 8(%esp)
 5524 33e5 8D45E8   		leal	-24(%ebp), %eax
 5525 33e8 89442404 		movl	%eax, 4(%esp)
 5526 33ec C7042488 		movl	$136, (%esp)
 5526      000000
 5527 33f3 E804E8FF 		call	_a_op_TYPE3_c
 5527      FF
 5528 33f8 85C0     		testl	%eax, %eax
 5529 33fa 0F84AC00 		je	L412
GAS LISTING asm80386_x.s 			page 120


 5529      0000
 5530 3400 B8FFFFFF 		movl	$-1, %eax
 5530      FF
 5531 3405 E9AC0000 		jmp	L423
 5531      00
 5532              	L417:
 5533 340a 8B45E8   		movl	-24(%ebp), %eax
 5534 340d 83F813   		cmpl	$19, %eax
 5535 3410 7E3C     		jle	L419
 5536 3412 8B45E8   		movl	-24(%ebp), %eax
 5537 3415 83F819   		cmpl	$25, %eax
 5538 3418 7F34     		jg	L419
 5539 341a 8B45D8   		movl	-40(%ebp), %eax
 5540 341d 85C0     		testl	%eax, %eax
 5541 341f 7E2D     		jle	L419
 5542 3421 8B45D8   		movl	-40(%ebp), %eax
 5543 3424 83F803   		cmpl	$3, %eax
 5544 3427 7F25     		jg	L419
 5545 3429 8D45D8   		leal	-40(%ebp), %eax
 5546 342c 89442408 		movl	%eax, 8(%esp)
 5547 3430 8D45E8   		leal	-24(%ebp), %eax
 5548 3433 89442404 		movl	%eax, 4(%esp)
 5549 3437 C7042488 		movl	$136, (%esp)
 5549      000000
 5550 343e E8A9E8FF 		call	_a_op_TYPE3_d
 5550      FF
 5551 3443 85C0     		testl	%eax, %eax
 5552 3445 7465     		je	L412
 5553 3447 B8FFFFFF 		movl	$-1, %eax
 5553      FF
 5554 344c EB68     		jmp	L423
 5555              	L419:
 5556 344e 8B45E8   		movl	-24(%ebp), %eax
 5557 3451 85C0     		testl	%eax, %eax
 5558 3453 7E3C     		jle	L421
 5559 3455 8B45E8   		movl	-24(%ebp), %eax
 5560 3458 83F803   		cmpl	$3, %eax
 5561 345b 7F34     		jg	L421
 5562 345d 8B45D8   		movl	-40(%ebp), %eax
 5563 3460 85C0     		testl	%eax, %eax
 5564 3462 7E2D     		jle	L421
 5565 3464 8B45D8   		movl	-40(%ebp), %eax
 5566 3467 83F803   		cmpl	$3, %eax
 5567 346a 7F25     		jg	L421
 5568 346c 8D45D8   		leal	-40(%ebp), %eax
 5569 346f 89442408 		movl	%eax, 8(%esp)
 5570 3473 8D45E8   		leal	-24(%ebp), %eax
 5571 3476 89442404 		movl	%eax, 4(%esp)
 5572 347a C7042488 		movl	$136, (%esp)
 5572      000000
 5573 3481 E80DE4FF 		call	_a_op_TYPE3_b
 5573      FF
 5574 3486 85C0     		testl	%eax, %eax
 5575 3488 7422     		je	L412
 5576 348a B8FFFFFF 		movl	$-1, %eax
 5576      FF
 5577 348f EB25     		jmp	L423
GAS LISTING asm80386_x.s 			page 121


 5578              	L421:
 5579 3491 C7442404 		movl	$1894, 4(%esp)
 5579      66070000 
 5580 3499 C7042405 		movl	$5, (%esp)
 5580      000000
 5581 34a0 E870CCFF 		call	_a_error_message
 5581      FF
 5582 34a5 B8FFFFFF 		movl	$-1, %eax
 5582      FF
 5583 34aa EB0A     		jmp	L423
 5584              	L412:
 5585 34ac E89CCFFF 		call	_a_objout
 5585      FF
 5586 34b1 B8000000 		movl	$0, %eax
 5586      00
 5587              	L423:
 5588 34b6 C9       		leave
 5589              		.cfi_restore 5
 5590              		.cfi_def_cfa 4, 4
 5591 34b7 C3       		ret
 5592              		.cfi_endproc
 5593              	LFE48:
 5594              		.globl	_a_op_TYPE10
 5595              		.def	_a_op_TYPE10;	.scl	2;	.type	32;	.endef
 5596              	_a_op_TYPE10:
 5597              	LFB49:
 5598              		.cfi_startproc
 5599 34b8 55       		pushl	%ebp
 5600              		.cfi_def_cfa_offset 8
 5601              		.cfi_offset 5, -8
 5602 34b9 89E5     		movl	%esp, %ebp
 5603              		.cfi_def_cfa_register 5
 5604 34bb 83EC38   		subl	$56, %esp
 5605 34be A1801B0B 		movl	_a_linebufp, %eax
 5605      00
 5606 34c3 8945F4   		movl	%eax, -12(%ebp)
 5607 34c6 E842CDFF 		call	_a_getsym
 5607      FF
 5608 34cb 85C0     		testl	%eax, %eax
 5609 34cd 740A     		je	L425
 5610 34cf B8FFFFFF 		movl	$-1, %eax
 5610      FF
 5611 34d4 E92B0100 		jmp	L436
 5611      00
 5612              	L425:
 5613 34d9 E8BCCDFF 		call	_a_symsrch
 5613      FF
 5614 34de 8945F0   		movl	%eax, -16(%ebp)
 5615 34e1 837DF000 		cmpl	$0, -16(%ebp)
 5616 34e5 0F88A900 		js	L427
 5616      0000
 5617 34eb 8B55F0   		movl	-16(%ebp), %edx
 5618 34ee 89D0     		movl	%edx, %eax
 5619 34f0 C1E003   		sall	$3, %eax
 5620 34f3 01D0     		addl	%edx, %eax
 5621 34f5 C1E003   		sall	$3, %eax
 5622 34f8 05400000 		addl	$_a_symtbl+64, %eax
GAS LISTING asm80386_x.s 			page 122


 5622      00
 5623 34fd 8B00     		movl	(%eax), %eax
 5624 34ff 3DEF0300 		cmpl	$1007, %eax
 5624      00
 5625 3504 0F858A00 		jne	L427
 5625      0000
 5626 350a 8B55F0   		movl	-16(%ebp), %edx
 5627 350d 89D0     		movl	%edx, %eax
 5628 350f C1E003   		sall	$3, %eax
 5629 3512 01D0     		addl	%edx, %eax
 5630 3514 C1E003   		sall	$3, %eax
 5631 3517 05440000 		addl	$_a_symtbl+68, %eax
 5631      00
 5632 351c 8B00     		movl	(%eax), %eax
 5633 351e 8945EC   		movl	%eax, -20(%ebp)
 5634 3521 8D45DC   		leal	-36(%ebp), %eax
 5635 3524 890424   		movl	%eax, (%esp)
 5636 3527 E8D0E1FF 		call	_a_get1operand
 5636      FF
 5637 352c 85C0     		testl	%eax, %eax
 5638 352e 740A     		je	L428
 5639 3530 B8FFFFFF 		movl	$-1, %eax
 5639      FF
 5640 3535 E9CA0000 		jmp	L436
 5640      00
 5641              	L428:
 5642 353a 8B45DC   		movl	-36(%ebp), %eax
 5643 353d 83F813   		cmpl	$19, %eax
 5644 3540 7E35     		jle	L429
 5645 3542 8B45DC   		movl	-36(%ebp), %eax
 5646 3545 83F819   		cmpl	$25, %eax
 5647 3548 7F2D     		jg	L429
 5648 354a 837DEC01 		cmpl	$1, -20(%ebp)
 5649 354e 7427     		je	L429
 5650 3550 8D45DC   		leal	-36(%ebp), %eax
 5651 3553 89442408 		movl	%eax, 8(%esp)
 5652 3557 8B45EC   		movl	-20(%ebp), %eax
 5653 355a 89442404 		movl	%eax, 4(%esp)
 5654 355e 8B4508   		movl	8(%ebp), %eax
 5655 3561 890424   		movl	%eax, (%esp)
 5656 3564 E82EF4FF 		call	_a_op_TYPE5_b
 5656      FF
 5657 3569 85C0     		testl	%eax, %eax
 5658 356b 7425     		je	L431
 5659 356d B8FFFFFF 		movl	$-1, %eax
 5659      FF
 5660 3572 E98D0000 		jmp	L436
 5660      00
 5661              	L429:
 5662 3577 C7442404 		movl	$1924, 4(%esp)
 5662      84070000 
 5663 357f C7042405 		movl	$5, (%esp)
 5663      000000
 5664 3586 E88ACBFF 		call	_a_error_message
 5664      FF
 5665 358b B8FFFFFF 		movl	$-1, %eax
 5665      FF
GAS LISTING asm80386_x.s 			page 123


 5666 3590 EB72     		jmp	L436
 5667              	L431:
 5668 3592 EB66     		jmp	L432
 5669              	L427:
 5670 3594 8B45F4   		movl	-12(%ebp), %eax
 5671 3597 A3801B0B 		movl	%eax, _a_linebufp
 5671      00
 5672 359c 8D45DC   		leal	-36(%ebp), %eax
 5673 359f 890424   		movl	%eax, (%esp)
 5674 35a2 E855E1FF 		call	_a_get1operand
 5674      FF
 5675 35a7 85C0     		testl	%eax, %eax
 5676 35a9 7407     		je	L433
 5677 35ab B8FFFFFF 		movl	$-1, %eax
 5677      FF
 5678 35b0 EB52     		jmp	L436
 5679              	L433:
 5680 35b2 8B45DC   		movl	-36(%ebp), %eax
 5681 35b5 83F801   		cmpl	$1, %eax
 5682 35b8 7E25     		jle	L434
 5683 35ba 8B45DC   		movl	-36(%ebp), %eax
 5684 35bd 83F803   		cmpl	$3, %eax
 5685 35c0 7F1D     		jg	L434
 5686 35c2 8D45DC   		leal	-36(%ebp), %eax
 5687 35c5 89442404 		movl	%eax, 4(%esp)
 5688 35c9 8B4508   		movl	8(%ebp), %eax
 5689 35cc 890424   		movl	%eax, (%esp)
 5690 35cf E8A3F0FF 		call	_a_op_TYPE5_a
 5690      FF
 5691 35d4 85C0     		testl	%eax, %eax
 5692 35d6 7422     		je	L432
 5693 35d8 B8FFFFFF 		movl	$-1, %eax
 5693      FF
 5694 35dd EB25     		jmp	L436
 5695              	L434:
 5696 35df C7442404 		movl	$1939, 4(%esp)
 5696      93070000 
 5697 35e7 C7042405 		movl	$5, (%esp)
 5697      000000
 5698 35ee E822CBFF 		call	_a_error_message
 5698      FF
 5699 35f3 B8FFFFFF 		movl	$-1, %eax
 5699      FF
 5700 35f8 EB0A     		jmp	L436
 5701              	L432:
 5702 35fa E84ECEFF 		call	_a_objout
 5702      FF
 5703 35ff B8000000 		movl	$0, %eax
 5703      00
 5704              	L436:
 5705 3604 C9       		leave
 5706              		.cfi_restore 5
 5707              		.cfi_def_cfa 4, 4
 5708 3605 C3       		ret
 5709              		.cfi_endproc
 5710              	LFE49:
 5711              		.globl	_a_op_TYPE11
GAS LISTING asm80386_x.s 			page 124


 5712              		.def	_a_op_TYPE11;	.scl	2;	.type	32;	.endef
 5713              	_a_op_TYPE11:
 5714              	LFB50:
 5715              		.cfi_startproc
 5716 3606 55       		pushl	%ebp
 5717              		.cfi_def_cfa_offset 8
 5718              		.cfi_offset 5, -8
 5719 3607 89E5     		movl	%esp, %ebp
 5720              		.cfi_def_cfa_register 5
 5721 3609 83EC48   		subl	$72, %esp
 5722 360c A1801B0B 		movl	_a_linebufp, %eax
 5722      00
 5723 3611 8945F0   		movl	%eax, -16(%ebp)
 5724 3614 E8F4CBFF 		call	_a_getsym
 5724      FF
 5725 3619 85C0     		testl	%eax, %eax
 5726 361b 740A     		je	L438
 5727 361d B8FFFFFF 		movl	$-1, %eax
 5727      FF
 5728 3622 E93A0200 		jmp	L457
 5728      00
 5729              	L438:
 5730 3627 E86ECCFF 		call	_a_symsrch
 5730      FF
 5731 362c 8945EC   		movl	%eax, -20(%ebp)
 5732 362f 837DEC00 		cmpl	$0, -20(%ebp)
 5733 3633 0F883201 		js	L440
 5733      0000
 5734 3639 8B55EC   		movl	-20(%ebp), %edx
 5735 363c 89D0     		movl	%edx, %eax
 5736 363e C1E003   		sall	$3, %eax
 5737 3641 01D0     		addl	%edx, %eax
 5738 3643 C1E003   		sall	$3, %eax
 5739 3646 05400000 		addl	$_a_symtbl+64, %eax
 5739      00
 5740 364b 8B00     		movl	(%eax), %eax
 5741 364d 3DEF0300 		cmpl	$1007, %eax
 5741      00
 5742 3652 0F851301 		jne	L440
 5742      0000
 5743 3658 8B55EC   		movl	-20(%ebp), %edx
 5744 365b 89D0     		movl	%edx, %eax
 5745 365d C1E003   		sall	$3, %eax
 5746 3660 01D0     		addl	%edx, %eax
 5747 3662 C1E003   		sall	$3, %eax
 5748 3665 05440000 		addl	$_a_symtbl+68, %eax
 5748      00
 5749 366a 8B00     		movl	(%eax), %eax
 5750 366c 8945E8   		movl	%eax, -24(%ebp)
 5751 366f 8D45D8   		leal	-40(%ebp), %eax
 5752 3672 890424   		movl	%eax, (%esp)
 5753 3675 E882E0FF 		call	_a_get1operand
 5753      FF
 5754 367a 85C0     		testl	%eax, %eax
 5755 367c 740A     		je	L441
 5756 367e B8FFFFFF 		movl	$-1, %eax
 5756      FF
GAS LISTING asm80386_x.s 			page 125


 5757 3683 E9D90100 		jmp	L457
 5757      00
 5758              	L441:
 5759 3688 E873C9FF 		call	_a_spskip
 5759      FF
 5760 368d A1801B0B 		movl	_a_linebufp, %eax
 5760      00
 5761 3692 8D5001   		leal	1(%eax), %edx
 5762 3695 8915801B 		movl	%edx, _a_linebufp
 5762      0B00
 5763 369b 0FB600   		movzbl	(%eax), %eax
 5764 369e 3C2C     		cmpb	$44, %al
 5765 36a0 741E     		je	L442
 5766 36a2 C7442404 		movl	$1966, 4(%esp)
 5766      AE070000 
 5767 36aa C7042405 		movl	$5, (%esp)
 5767      000000
 5768 36b1 E85FCAFF 		call	_a_error_message
 5768      FF
 5769 36b6 B8FFFFFF 		movl	$-1, %eax
 5769      FF
 5770 36bb E9A10100 		jmp	L457
 5770      00
 5771              	L442:
 5772 36c0 8D45C8   		leal	-56(%ebp), %eax
 5773 36c3 890424   		movl	%eax, (%esp)
 5774 36c6 E831E0FF 		call	_a_get1operand
 5774      FF
 5775 36cb 85C0     		testl	%eax, %eax
 5776 36cd 740A     		je	L443
 5777 36cf B8FFFFFF 		movl	$-1, %eax
 5777      FF
 5778 36d4 E9880100 		jmp	L457
 5778      00
 5779              	L443:
 5780 36d9 8B45C8   		movl	-56(%ebp), %eax
 5781 36dc 83F80A   		cmpl	$10, %eax
 5782 36df 7511     		jne	L444
 5783 36e1 8B45D0   		movl	-48(%ebp), %eax
 5784 36e4 83F801   		cmpl	$1, %eax
 5785 36e7 7509     		jne	L444
 5786 36e9 C745F400 		movl	$0, -12(%ebp)
 5786      000000
 5787 36f0 EB17     		jmp	L445
 5788              	L444:
 5789 36f2 8B45C8   		movl	-56(%ebp), %eax
 5790 36f5 83F801   		cmpl	$1, %eax
 5791 36f8 750F     		jne	L445
 5792 36fa 8B45CC   		movl	-52(%ebp), %eax
 5793 36fd 83F801   		cmpl	$1, %eax
 5794 3700 7507     		jne	L445
 5795 3702 C745F402 		movl	$2, -12(%ebp)
 5795      000000
 5796              	L445:
 5797 3709 8B45D8   		movl	-40(%ebp), %eax
 5798 370c 83F813   		cmpl	$19, %eax
 5799 370f 7E37     		jle	L446
GAS LISTING asm80386_x.s 			page 126


 5800 3711 8B45D8   		movl	-40(%ebp), %eax
 5801 3714 83F819   		cmpl	$25, %eax
 5802 3717 7F2F     		jg	L446
 5803 3719 8B45F4   		movl	-12(%ebp), %eax
 5804 371c 0B4508   		orl	8(%ebp), %eax
 5805 371f C1E008   		sall	$8, %eax
 5806 3722 89C2     		movl	%eax, %edx
 5807 3724 8D45D8   		leal	-40(%ebp), %eax
 5808 3727 89442408 		movl	%eax, 8(%esp)
 5809 372b 8B45E8   		movl	-24(%ebp), %eax
 5810 372e 89442404 		movl	%eax, 4(%esp)
 5811 3732 891424   		movl	%edx, (%esp)
 5812 3735 E85DF2FF 		call	_a_op_TYPE5_b
 5812      FF
 5813 373a 85C0     		testl	%eax, %eax
 5814 373c 7428     		je	L448
 5815 373e B8FFFFFF 		movl	$-1, %eax
 5815      FF
 5816 3743 E9190100 		jmp	L457
 5816      00
 5817              	L446:
 5818 3748 C7442404 		movl	$1984, 4(%esp)
 5818      C0070000 
 5819 3750 C7042405 		movl	$5, (%esp)
 5819      000000
 5820 3757 E8B9C9FF 		call	_a_error_message
 5820      FF
 5821 375c B8FFFFFF 		movl	$-1, %eax
 5821      FF
 5822 3761 E9FB0000 		jmp	L457
 5822      00
 5823              	L448:
 5824 3766 E9EC0000 		jmp	L449
 5824      00
 5825              	L440:
 5826 376b 8B45F0   		movl	-16(%ebp), %eax
 5827 376e A3801B0B 		movl	%eax, _a_linebufp
 5827      00
 5828 3773 8D45D8   		leal	-40(%ebp), %eax
 5829 3776 890424   		movl	%eax, (%esp)
 5830 3779 E87EDFFF 		call	_a_get1operand
 5830      FF
 5831 377e 85C0     		testl	%eax, %eax
 5832 3780 740A     		je	L450
 5833 3782 B8FFFFFF 		movl	$-1, %eax
 5833      FF
 5834 3787 E9D50000 		jmp	L457
 5834      00
 5835              	L450:
 5836 378c E86FC8FF 		call	_a_spskip
 5836      FF
 5837 3791 A1801B0B 		movl	_a_linebufp, %eax
 5837      00
 5838 3796 8D5001   		leal	1(%eax), %edx
 5839 3799 8915801B 		movl	%edx, _a_linebufp
 5839      0B00
 5840 379f 0FB600   		movzbl	(%eax), %eax
GAS LISTING asm80386_x.s 			page 127


 5841 37a2 3C2C     		cmpb	$44, %al
 5842 37a4 741E     		je	L451
 5843 37a6 C7442404 		movl	$1995, 4(%esp)
 5843      CB070000 
 5844 37ae C7042405 		movl	$5, (%esp)
 5844      000000
 5845 37b5 E85BC9FF 		call	_a_error_message
 5845      FF
 5846 37ba B8FFFFFF 		movl	$-1, %eax
 5846      FF
 5847 37bf E99D0000 		jmp	L457
 5847      00
 5848              	L451:
 5849 37c4 8D45C8   		leal	-56(%ebp), %eax
 5850 37c7 890424   		movl	%eax, (%esp)
 5851 37ca E82DDFFF 		call	_a_get1operand
 5851      FF
 5852 37cf 85C0     		testl	%eax, %eax
 5853 37d1 740A     		je	L452
 5854 37d3 B8FFFFFF 		movl	$-1, %eax
 5854      FF
 5855 37d8 E9840000 		jmp	L457
 5855      00
 5856              	L452:
 5857 37dd 8B45C8   		movl	-56(%ebp), %eax
 5858 37e0 83F80A   		cmpl	$10, %eax
 5859 37e3 7511     		jne	L453
 5860 37e5 8B45D0   		movl	-48(%ebp), %eax
 5861 37e8 83F801   		cmpl	$1, %eax
 5862 37eb 7509     		jne	L453
 5863 37ed C745F400 		movl	$0, -12(%ebp)
 5863      000000
 5864 37f4 EB17     		jmp	L454
 5865              	L453:
 5866 37f6 8B45C8   		movl	-56(%ebp), %eax
 5867 37f9 83F801   		cmpl	$1, %eax
 5868 37fc 750F     		jne	L454
 5869 37fe 8B45CC   		movl	-52(%ebp), %eax
 5870 3801 83F801   		cmpl	$1, %eax
 5871 3804 7507     		jne	L454
 5872 3806 C745F402 		movl	$2, -12(%ebp)
 5872      000000
 5873              	L454:
 5874 380d 8B45D8   		movl	-40(%ebp), %eax
 5875 3810 85C0     		testl	%eax, %eax
 5876 3812 7E28     		jle	L455
 5877 3814 8B45D8   		movl	-40(%ebp), %eax
 5878 3817 83F803   		cmpl	$3, %eax
 5879 381a 7F20     		jg	L455
 5880 381c 8B45F4   		movl	-12(%ebp), %eax
 5881 381f 0B4508   		orl	8(%ebp), %eax
 5882 3822 8D55D8   		leal	-40(%ebp), %edx
 5883 3825 89542404 		movl	%edx, 4(%esp)
 5884 3829 890424   		movl	%eax, (%esp)
 5885 382c E85AF3FF 		call	_a_op_TYPE6_a
 5885      FF
 5886 3831 85C0     		testl	%eax, %eax
GAS LISTING asm80386_x.s 			page 128


 5887 3833 7422     		je	L449
 5888 3835 B8FFFFFF 		movl	$-1, %eax
 5888      FF
 5889 383a EB25     		jmp	L457
 5890              	L455:
 5891 383c C7442404 		movl	$2013, 4(%esp)
 5891      DD070000 
 5892 3844 C7042405 		movl	$5, (%esp)
 5892      000000
 5893 384b E8C5C8FF 		call	_a_error_message
 5893      FF
 5894 3850 B8FFFFFF 		movl	$-1, %eax
 5894      FF
 5895 3855 EB0A     		jmp	L457
 5896              	L449:
 5897 3857 E8F1CBFF 		call	_a_objout
 5897      FF
 5898 385c B8000000 		movl	$0, %eax
 5898      00
 5899              	L457:
 5900 3861 C9       		leave
 5901              		.cfi_restore 5
 5902              		.cfi_def_cfa 4, 4
 5903 3862 C3       		ret
 5904              		.cfi_endproc
 5905              	LFE50:
 5906              		.globl	_a_op_TYPE12
 5907              		.def	_a_op_TYPE12;	.scl	2;	.type	32;	.endef
 5908              	_a_op_TYPE12:
 5909              	LFB51:
 5910              		.cfi_startproc
 5911 3863 55       		pushl	%ebp
 5912              		.cfi_def_cfa_offset 8
 5913              		.cfi_offset 5, -8
 5914 3864 89E5     		movl	%esp, %ebp
 5915              		.cfi_def_cfa_register 5
 5916 3866 83EC28   		subl	$40, %esp
 5917 3869 E892C7FF 		call	_a_spskip
 5917      FF
 5918 386e A1801B0B 		movl	_a_linebufp, %eax
 5918      00
 5919 3873 0FB600   		movzbl	(%eax), %eax
 5920 3876 84C0     		testb	%al, %al
 5921 3878 740C     		je	L459
 5922 387a A1801B0B 		movl	_a_linebufp, %eax
 5922      00
 5923 387f 0FB600   		movzbl	(%eax), %eax
 5924 3882 3C3B     		cmpb	$59, %al
 5925 3884 7514     		jne	L460
 5926              	L459:
 5927 3886 8B4508   		movl	8(%ebp), %eax
 5928 3889 A25C170B 		movb	%al, _a_inst
 5928      00
 5929 388e C7056817 		movl	$1, _a_inst_ptr
 5929      0B000100 
 5929      0000
 5930 3898 EB36     		jmp	L461
GAS LISTING asm80386_x.s 			page 129


 5931              	L460:
 5932 389a 8B4508   		movl	8(%ebp), %eax
 5933 389d C1E808   		shrl	$8, %eax
 5934 38a0 A25C170B 		movb	%al, _a_inst
 5934      00
 5935 38a5 8D45F4   		leal	-12(%ebp), %eax
 5936 38a8 890424   		movl	%eax, (%esp)
 5937 38ab E8C5D2FF 		call	_a_expr
 5937      FF
 5938 38b0 85C0     		testl	%eax, %eax
 5939 38b2 7407     		je	L462
 5940 38b4 B8FFFFFF 		movl	$-1, %eax
 5940      FF
 5941 38b9 EB1F     		jmp	L464
 5942              	L462:
 5943 38bb 8B45F4   		movl	-12(%ebp), %eax
 5944 38be BA5D170B 		movl	$_a_inst+1, %edx
 5944      00
 5945 38c3 668902   		movw	%ax, (%edx)
 5946 38c6 C7056817 		movl	$3, _a_inst_ptr
 5946      0B000300 
 5946      0000
 5947              	L461:
 5948 38d0 E878CBFF 		call	_a_objout
 5948      FF
 5949 38d5 B8000000 		movl	$0, %eax
 5949      00
 5950              	L464:
 5951 38da C9       		leave
 5952              		.cfi_restore 5
 5953              		.cfi_def_cfa 4, 4
 5954 38db C3       		ret
 5955              		.cfi_endproc
 5956              	LFE51:
 5957              		.globl	_a_op_TYPE13
 5958              		.def	_a_op_TYPE13;	.scl	2;	.type	32;	.endef
 5959              	_a_op_TYPE13:
 5960              	LFB52:
 5961              		.cfi_startproc
 5962 38dc 55       		pushl	%ebp
 5963              		.cfi_def_cfa_offset 8
 5964              		.cfi_offset 5, -8
 5965 38dd 89E5     		movl	%esp, %ebp
 5966              		.cfi_def_cfa_register 5
 5967 38df 83EC48   		subl	$72, %esp
 5968 38e2 A1801B0B 		movl	_a_linebufp, %eax
 5968      00
 5969 38e7 8945F4   		movl	%eax, -12(%ebp)
 5970 38ea 8D45E4   		leal	-28(%ebp), %eax
 5971 38ed 890424   		movl	%eax, (%esp)
 5972 38f0 E807DEFF 		call	_a_get1operand
 5972      FF
 5973 38f5 85C0     		testl	%eax, %eax
 5974 38f7 740A     		je	L466
 5975 38f9 B8FFFFFF 		movl	$-1, %eax
 5975      FF
 5976 38fe E9710100 		jmp	L479
GAS LISTING asm80386_x.s 			page 130


 5976      00
 5977              	L466:
 5978 3903 E8F8C6FF 		call	_a_spskip
 5978      FF
 5979 3908 A1801B0B 		movl	_a_linebufp, %eax
 5979      00
 5980 390d 0FB600   		movzbl	(%eax), %eax
 5981 3910 3C2C     		cmpb	$44, %al
 5982 3912 741E     		je	L468
 5983 3914 C7442404 		movl	$2055, 4(%esp)
 5983      07080000 
 5984 391c C7042405 		movl	$5, (%esp)
 5984      000000
 5985 3923 E8EDC7FF 		call	_a_error_message
 5985      FF
 5986 3928 B8FFFFFF 		movl	$-1, %eax
 5986      FF
 5987 392d E9420100 		jmp	L479
 5987      00
 5988              	L468:
 5989 3932 A1801B0B 		movl	_a_linebufp, %eax
 5989      00
 5990 3937 83C001   		addl	$1, %eax
 5991 393a A3801B0B 		movl	%eax, _a_linebufp
 5991      00
 5992 393f 8D45D4   		leal	-44(%ebp), %eax
 5993 3942 890424   		movl	%eax, (%esp)
 5994 3945 E8B2DDFF 		call	_a_get1operand
 5994      FF
 5995 394a 85C0     		testl	%eax, %eax
 5996 394c 740A     		je	L469
 5997 394e B8FFFFFF 		movl	$-1, %eax
 5997      FF
 5998 3953 E91C0100 		jmp	L479
 5998      00
 5999              	L469:
 6000 3958 8B45E4   		movl	-28(%ebp), %eax
 6001 395b 85C0     		testl	%eax, %eax
 6002 395d 7E42     		jle	L470
 6003 395f 8B45E4   		movl	-28(%ebp), %eax
 6004 3962 83F803   		cmpl	$3, %eax
 6005 3965 7F3A     		jg	L470
 6006 3967 8B45D4   		movl	-44(%ebp), %eax
 6007 396a 85C0     		testl	%eax, %eax
 6008 396c 7E33     		jle	L470
 6009 396e 8B45D4   		movl	-44(%ebp), %eax
 6010 3971 83F803   		cmpl	$3, %eax
 6011 3974 7F2B     		jg	L470
 6012 3976 8B4508   		movl	8(%ebp), %eax
 6013 3979 8D55D4   		leal	-44(%ebp), %edx
 6014 397c 89542408 		movl	%edx, 8(%esp)
 6015 3980 8D55E4   		leal	-28(%ebp), %edx
 6016 3983 89542404 		movl	%edx, 4(%esp)
 6017 3987 890424   		movl	%eax, (%esp)
 6018 398a E804DFFF 		call	_a_op_TYPE3_b
 6018      FF
 6019 398f 85C0     		testl	%eax, %eax
GAS LISTING asm80386_x.s 			page 131


 6020 3991 0F84A800 		je	L472
 6020      0000
 6021 3997 B8FFFFFF 		movl	$-1, %eax
 6021      FF
 6022 399c E9D30000 		jmp	L479
 6022      00
 6023              	L470:
 6024 39a1 8B45E4   		movl	-28(%ebp), %eax
 6025 39a4 85C0     		testl	%eax, %eax
 6026 39a6 7E3F     		jle	L473
 6027 39a8 8B45E4   		movl	-28(%ebp), %eax
 6028 39ab 83F803   		cmpl	$3, %eax
 6029 39ae 7F37     		jg	L473
 6030 39b0 8B45D4   		movl	-44(%ebp), %eax
 6031 39b3 83F813   		cmpl	$19, %eax
 6032 39b6 7E2F     		jle	L473
 6033 39b8 8B45D4   		movl	-44(%ebp), %eax
 6034 39bb 83F819   		cmpl	$25, %eax
 6035 39be 7F27     		jg	L473
 6036 39c0 8B4508   		movl	8(%ebp), %eax
 6037 39c3 8D55D4   		leal	-44(%ebp), %edx
 6038 39c6 89542408 		movl	%edx, 8(%esp)
 6039 39ca 8D55E4   		leal	-28(%ebp), %edx
 6040 39cd 89542404 		movl	%edx, 4(%esp)
 6041 39d1 890424   		movl	%eax, (%esp)
 6042 39d4 E823E2FF 		call	_a_op_TYPE3_c
 6042      FF
 6043 39d9 85C0     		testl	%eax, %eax
 6044 39db 7462     		je	L472
 6045 39dd B8FFFFFF 		movl	$-1, %eax
 6045      FF
 6046 39e2 E98D0000 		jmp	L479
 6046      00
 6047              	L473:
 6048 39e7 8B45E4   		movl	-28(%ebp), %eax
 6049 39ea 83F813   		cmpl	$19, %eax
 6050 39ed 7E3B     		jle	L475
 6051 39ef 8B45E4   		movl	-28(%ebp), %eax
 6052 39f2 83F819   		cmpl	$25, %eax
 6053 39f5 7F33     		jg	L475
 6054 39f7 8B45D4   		movl	-44(%ebp), %eax
 6055 39fa 85C0     		testl	%eax, %eax
 6056 39fc 7E2C     		jle	L475
 6057 39fe 8B45D4   		movl	-44(%ebp), %eax
 6058 3a01 83F803   		cmpl	$3, %eax
 6059 3a04 7F24     		jg	L475
 6060 3a06 8B4508   		movl	8(%ebp), %eax
 6061 3a09 8D55D4   		leal	-44(%ebp), %edx
 6062 3a0c 89542408 		movl	%edx, 8(%esp)
 6063 3a10 8D55E4   		leal	-28(%ebp), %edx
 6064 3a13 89542404 		movl	%edx, 4(%esp)
 6065 3a17 890424   		movl	%eax, (%esp)
 6066 3a1a E8CDE2FF 		call	_a_op_TYPE3_d
 6066      FF
 6067 3a1f 85C0     		testl	%eax, %eax
 6068 3a21 741C     		je	L472
 6069 3a23 B8FFFFFF 		movl	$-1, %eax
GAS LISTING asm80386_x.s 			page 132


 6069      FF
 6070 3a28 EB4A     		jmp	L479
 6071              	L475:
 6072 3a2a 8B45F4   		movl	-12(%ebp), %eax
 6073 3a2d A3801B0B 		movl	%eax, _a_linebufp
 6073      00
 6074 3a32 8B4508   		movl	8(%ebp), %eax
 6075 3a35 890424   		movl	%eax, (%esp)
 6076 3a38 E842E9FF 		call	_a_op_TYPE3
 6076      FF
 6077 3a3d EB35     		jmp	L479
 6078              	L472:
 6079 3a3f 0FB6055C 		movzbl	_a_inst, %eax
 6079      170B00
 6080 3a46 3C66     		cmpb	$102, %al
 6081 3a48 7511     		jne	L477
 6082 3a4a 0FB6055D 		movzbl	_a_inst+1, %eax
 6082      170B00
 6083 3a51 83E0FD   		andl	$-3, %eax
 6084 3a54 A25D170B 		movb	%al, _a_inst+1
 6084      00
 6085 3a59 EB0F     		jmp	L478
 6086              	L477:
