	.file	"asm80386.c"
	.text
	.globl	_a_sym_code
	.data
LC0:
	.ascii "aaa\0"
LC1:
	.ascii "aad\0"
LC2:
	.ascii "aam\0"
LC3:
	.ascii "aas\0"
LC4:
	.ascii "adc\0"
LC5:
	.ascii "add\0"
LC6:
	.ascii "and\0"
LC7:
	.ascii "call\0"
LC8:
	.ascii "cbw\0"
LC9:
	.ascii "cmp\0"
LC10:
	.ascii "cwd\0"
LC11:
	.ascii "clc\0"
LC12:
	.ascii "cld\0"
LC13:
	.ascii "cli\0"
LC14:
	.ascii "cmc\0"
LC15:
	.ascii "daa\0"
LC16:
	.ascii "das\0"
LC17:
	.ascii "dec\0"
LC18:
	.ascii "div\0"
LC19:
	.ascii "hlt\0"
LC20:
	.ascii "idiv\0"
LC21:
	.ascii "imul\0"
LC22:
	.ascii "inc\0"
LC23:
	.ascii "int3\0"
LC24:
	.ascii "int\0"
LC25:
	.ascii "into\0"
LC26:
	.ascii "iret\0"
LC27:
	.ascii "ja\0"
LC28:
	.ascii "jae\0"
LC29:
	.ascii "jb\0"
LC30:
	.ascii "jbe\0"
LC31:
	.ascii "jc\0"
LC32:
	.ascii "je\0"
LC33:
	.ascii "jg\0"
LC34:
	.ascii "jge\0"
LC35:
	.ascii "jl\0"
LC36:
	.ascii "jle\0"
LC37:
	.ascii "jna\0"
LC38:
	.ascii "jnae\0"
LC39:
	.ascii "jnb\0"
LC40:
	.ascii "jnbe\0"
LC41:
	.ascii "jnc\0"
LC42:
	.ascii "jne\0"
LC43:
	.ascii "jng\0"
LC44:
	.ascii "jnge\0"
LC45:
	.ascii "jnl\0"
LC46:
	.ascii "jnle\0"
LC47:
	.ascii "jno\0"
LC48:
	.ascii "jns\0"
LC49:
	.ascii "jnz\0"
LC50:
	.ascii "jo\0"
LC51:
	.ascii "jpe\0"
LC52:
	.ascii "jpo\0"
LC53:
	.ascii "js\0"
LC54:
	.ascii "jz\0"
LC55:
	.ascii "jmp\0"
LC56:
	.ascii "lahf\0"
LC57:
	.ascii "mov\0"
LC58:
	.ascii "mul\0"
LC59:
	.ascii "neg\0"
LC60:
	.ascii "nop\0"
LC61:
	.ascii "not\0"
LC62:
	.ascii "or\0"
LC63:
	.ascii "pop\0"
LC64:
	.ascii "popf\0"
LC65:
	.ascii "push\0"
LC66:
	.ascii "pushf\0"
LC67:
	.ascii "rcl\0"
LC68:
	.ascii "rcr\0"
LC69:
	.ascii "ret\0"
LC70:
	.ascii "retf\0"
LC71:
	.ascii "rol\0"
LC72:
	.ascii "ror\0"
LC73:
	.ascii "sahf\0"
LC74:
	.ascii "sal\0"
LC75:
	.ascii "shl\0"
LC76:
	.ascii "sar\0"
LC77:
	.ascii "sbb\0"
LC78:
	.ascii "shr\0"
LC79:
	.ascii "stc\0"
LC80:
	.ascii "std\0"
LC81:
	.ascii "sti\0"
LC82:
	.ascii "sub\0"
LC83:
	.ascii "test\0"
LC84:
	.ascii "xchg\0"
LC85:
	.ascii "xor\0"
LC86:
	.ascii "db\0"
LC87:
	.ascii "dd\0"
LC88:
	.ascii "dw\0"
LC89:
	.ascii "equ\0"
LC90:
	.ascii "org\0"
LC91:
	.ascii "section\0"
LC92:
	.ascii "byte\0"
LC93:
	.ascii "word\0"
LC94:
	.ascii "dword\0"
LC95:
	.ascii "al\0"
LC96:
	.ascii "cl\0"
LC97:
	.ascii "dl\0"
LC98:
	.ascii "bl\0"
LC99:
	.ascii "ah\0"
LC100:
	.ascii "ch\0"
LC101:
	.ascii "dh\0"
LC102:
	.ascii "bh\0"
LC103:
	.ascii "ax\0"
LC104:
	.ascii "cx\0"
LC105:
	.ascii "dx\0"
LC106:
	.ascii "bx\0"
LC107:
	.ascii "sp\0"
LC108:
	.ascii "bp\0"
LC109:
	.ascii "si\0"
LC110:
	.ascii "di\0"
LC111:
	.ascii "eax\0"
LC112:
	.ascii "ecx\0"
LC113:
	.ascii "edx\0"
LC114:
	.ascii "ebx\0"
LC115:
	.ascii "esp\0"
LC116:
	.ascii "ebp\0"
LC117:
	.ascii "esi\0"
LC118:
	.ascii "edi\0"
LC119:
	.ascii "es\0"
LC120:
	.ascii "cs\0"
LC121:
	.ascii "ss\0"
LC122:
	.ascii "ds\0"
	.data
	.align 32
_a_sym_code:
	.long	LC0
	.long	1
	.long	55
	.long	LC1
	.long	2
	.long	2773
	.long	LC2
	.long	2
	.long	2772
	.long	LC3
	.long	1
	.long	63
	.long	LC4
	.long	3
	.long	276829200
	.long	LC5
	.long	3
	.long	8389632
	.long	LC6
	.long	3
	.long	545268768
	.long	LC7
	.long	4
	.long	39656
	.long	LC8
	.long	2
	.long	39014
	.long	LC9
	.long	3
	.long	947928120
	.long	LC10
	.long	2
	.long	39270
	.long	LC11
	.long	1
	.long	248
	.long	LC12
	.long	1
	.long	252
	.long	LC13
	.long	1
	.long	250
	.long	LC14
	.long	1
	.long	245
	.long	LC15
	.long	1
	.long	39
	.long	LC16
	.long	1
	.long	47
	.long	LC17
	.long	5
	.long	589384
	.long	LC18
	.long	6
	.long	12534
	.long	LC19
	.long	1
	.long	244
	.long	LC20
	.long	6
	.long	14582
	.long	LC21
	.long	6
	.long	10486
	.long	LC22
	.long	5
	.long	65088
	.long	LC23
	.long	1
	.long	204
	.long	LC24
	.long	7
	.long	205
	.long	LC25
	.long	1
	.long	206
	.long	LC26
	.long	1
	.long	207
	.long	LC27
	.long	8
	.long	34575
	.long	LC28
	.long	8
	.long	33551
	.long	LC29
	.long	8
	.long	33295
	.long	LC30
	.long	8
	.long	34319
	.long	LC31
	.long	8
	.long	33295
	.long	LC32
	.long	8
	.long	33807
	.long	LC33
	.long	8
	.long	36623
	.long	LC34
	.long	8
	.long	36111
	.long	LC35
	.long	8
	.long	35855
	.long	LC36
	.long	8
	.long	36367
	.long	LC37
	.long	8
	.long	34319
	.long	LC38
	.long	8
	.long	33295
	.long	LC39
	.long	8
	.long	33551
	.long	LC40
	.long	8
	.long	34575
	.long	LC41
	.long	8
	.long	33551
	.long	LC42
	.long	8
	.long	34063
	.long	LC43
	.long	8
	.long	36367
	.long	LC44
	.long	8
	.long	35855
	.long	LC45
	.long	8
	.long	36111
	.long	LC46
	.long	8
	.long	36623
	.long	LC47
	.long	8
	.long	33039
	.long	LC48
	.long	8
	.long	35087
	.long	LC49
	.long	8
	.long	34063
	.long	LC50
	.long	8
	.long	32783
	.long	LC51
	.long	8
	.long	35343
	.long	LC52
	.long	8
	.long	35599
	.long	LC53
	.long	8
	.long	34831
	.long	LC54
	.long	8
	.long	33807
	.long	LC55
	.long	4
	.long	60137
	.long	LC56
	.long	1
	.long	159
	.long	LC57
	.long	9
	.long	0
	.long	LC58
	.long	6
	.long	8438
	.long	LC59
	.long	6
	.long	6390
	.long	LC60
	.long	1
	.long	144
	.long	LC61
	.long	6
	.long	4342
	.long	LC62
	.long	3
	.long	142609416
	.long	LC63
	.long	10
	.long	36696
	.long	LC64
	.long	1
	.long	157
	.long	LC65
	.long	10
	.long	3211088
	.long	LC66
	.long	1
	.long	156
	.long	LC67
	.long	11
	.long	4304
	.long	LC68
	.long	11
	.long	6352
	.long	LC69
	.long	12
	.long	49859
	.long	LC70
	.long	12
	.long	51915
	.long	LC71
	.long	11
	.long	208
	.long	LC72
	.long	11
	.long	2256
	.long	LC73
	.long	1
	.long	158
	.long	LC74
	.long	11
	.long	8400
	.long	LC75
	.long	11
	.long	8400
	.long	LC76
	.long	11
	.long	14544
	.long	LC77
	.long	3
	.long	411048984
	.long	LC78
	.long	11
	.long	10448
	.long	LC79
	.long	1
	.long	249
	.long	LC80
	.long	1
	.long	253
	.long	LC81
	.long	1
	.long	251
	.long	LC82
	.long	3
	.long	679488552
	.long	LC83
	.long	13
	.long	16164996
	.long	LC84
	.long	14
	.long	34448
	.long	LC85
	.long	3
	.long	813708336
	.long	LC86
	.long	1004
	.long	0
	.long	LC87
	.long	1006
	.long	0
	.long	LC88
	.long	1005
	.long	0
	.long	LC89
	.long	1003
	.long	0
	.long	LC90
	.long	1002
	.long	0
	.long	LC91
	.long	1001
	.long	0
	.long	LC92
	.long	1007
	.long	1
	.long	LC93
	.long	1007
	.long	2
	.long	LC94
	.long	1007
	.long	3
	.long	LC95
	.long	200
	.long	256
	.long	LC96
	.long	200
	.long	257
	.long	LC97
	.long	200
	.long	258
	.long	LC98
	.long	200
	.long	259
	.long	LC99
	.long	200
	.long	260
	.long	LC100
	.long	200
	.long	261
	.long	LC101
	.long	200
	.long	262
	.long	LC102
	.long	200
	.long	263
	.long	LC103
	.long	200
	.long	512
	.long	LC104
	.long	200
	.long	513
	.long	LC105
	.long	200
	.long	514
	.long	LC106
	.long	200
	.long	515
	.long	LC107
	.long	200
	.long	516
	.long	LC108
	.long	200
	.long	517
	.long	LC109
	.long	200
	.long	518
	.long	LC110
	.long	200
	.long	519
	.long	LC111
	.long	200
	.long	768
	.long	LC112
	.long	200
	.long	769
	.long	LC113
	.long	200
	.long	770
	.long	LC114
	.long	200
	.long	771
	.long	LC115
	.long	200
	.long	772
	.long	LC116
	.long	200
	.long	773
	.long	LC117
	.long	200
	.long	774
	.long	LC118
	.long	200
	.long	775
	.long	LC119
	.long	200
	.long	1024
	.long	LC120
	.long	200
	.long	1025
	.long	LC121
	.long	200
	.long	1026
	.long	LC122
	.long	200
	.long	1027
	.long	0
	.long	0
	.space 4
	.globl	_a_symtbl
	.bss
	.align 32
_a_symtbl:
	.space 720000
	.globl	_a_symtbl_ptr
	.align 4
_a_symtbl_ptr:
	.space 4
	.globl	_a_section
	.align 32
_a_section:
	.space 6800
	.globl	_a_section_ptr
	.align 4
_a_section_ptr:
	.space 4
	.globl	_a_section_numb
	.align 4
_a_section_numb:
	.space 4
	.globl	_a_error
	.data
LC123:
	.ascii "No error\0"
LC124:
	.ascii "E_NOTSYMBOL\0"
LC125:
	.ascii "E_LINEEND\0"
LC126:
	.ascii "E_MULTIPLE_DEFINITION\0"
LC127:
	.ascii "E_UNDEFINED_SYMBOL\0"
LC128:
	.ascii "E_SYNTAX_ERROR\0"
LC129:
	.ascii "E_INTERNAL_ERROR\0"
	.data
	.align 4
_a_error:
	.long	LC123
	.long	LC124
	.long	LC125
	.long	LC126
	.long	LC127
	.long	LC128
	.long	LC129
	.globl	_a_srcfile
	.bss
	.align 4
_a_srcfile:
	.space 4
	.globl	_a_srcfile_len
	.align 4
_a_srcfile_len:
	.space 4
	.globl	_a_srcfile_ptr
	.align 4
_a_srcfile_ptr:
	.space 4
	.globl	_a_objfile
	.align 4
_a_objfile:
	.space 4
	.globl	_a_objfile_ptr
	.align 4
_a_objfile_ptr:
	.space 4
	.globl	_a_binfile
	.align 4
_a_binfile:
	.space 4
	.globl	_a_addr_top
	.align 4
_a_addr_top:
	.space 4
	.globl	_a_addr_end
	.align 4
_a_addr_end:
	.space 4
	.globl	_a_bindata
	.align 4
_a_bindata:
	.space 4
	.globl	_a_inst
	.align 4
_a_inst:
	.space 12
	.globl	_a_inst_ptr
	.align 4
_a_inst_ptr:
	.space 4
	.globl	_a_linebuf
	.align 32
_a_linebuf:
	.space 1024
	.globl	_a_linebufp
	.align 4
_a_linebufp:
	.space 4
	.globl	_a_symbuf
	.align 32
_a_symbuf:
	.space 64
	.globl	_a_addr
	.align 4
_a_addr:
	.space 4
	.globl	_a_linenumb
	.align 4
_a_linenumb:
	.space 4
	.globl	_a_pass
	.align 4
_a_pass:
	.space 4
	.globl	_a_chg_flag
	.align 4
_a_chg_flag:
	.space 4
	.text
	.globl	_a_spskip
	.def	_a_spskip;	.scl	2;	.type	32;	.endef
_a_spskip:
LFB0:
	.cfi_startproc
	pushl	%ebp
	.cfi_def_cfa_offset 8
	.cfi_offset 5, -8
	movl	%esp, %ebp
	.cfi_def_cfa_register 5
	jmp	L2
L3:
	movl	_a_linebufp, %eax
	addl	$1, %eax
	movl	%eax, _a_linebufp
L2:
	movl	_a_linebufp, %eax
	movzbl	(%eax), %eax
	cmpb	$32, %al
	je	L3
	movl	_a_linebufp, %eax
	movzbl	(%eax), %eax
	cmpb	$9, %al
	je	L3
	nop
	nop
	popl	%ebp
	.cfi_restore 5
	.cfi_def_cfa 4, 4
	ret
	.cfi_endproc
LFE0:
	.globl	_a_get1line
	.def	_a_get1line;	.scl	2;	.type	32;	.endef
_a_get1line:
LFB1:
	.cfi_startproc
	pushl	%ebp
	.cfi_def_cfa_offset 8
	.cfi_offset 5, -8
	movl	%esp, %ebp
	.cfi_def_cfa_register 5
	subl	$16, %esp
	movl	$_a_linebuf, _a_linebufp
	movl	$0, -4(%ebp)
	jmp	L5
L11:
	movl	_a_srcfile, %edx
	movl	_a_srcfile_ptr, %eax
	addl	%edx, %eax
	movzbl	(%eax), %eax
	movsbl	%al, %eax
	movl	%eax, -8(%ebp)
	cmpl	$0, -8(%ebp)
	jne	L6
	movl	-4(%ebp), %eax
	addl	$_a_linebuf, %eax
	movb	$0, (%eax)
	jmp	L4
L6:
	cmpl	$10, -8(%ebp)
	jne	L8
	movl	-4(%ebp), %eax
	addl	$_a_linebuf, %eax
	movb	$0, (%eax)
	movl	_a_srcfile_ptr, %eax
	addl	$1, %eax
	movl	%eax, _a_srcfile_ptr
	jmp	L4
L8:
	cmpl	$13, -8(%ebp)
	jne	L9
	movl	-4(%ebp), %eax
	addl	$_a_linebuf, %eax
	movb	$0, (%eax)
	movl	_a_srcfile_ptr, %eax
	addl	$1, %eax
	movl	%eax, _a_srcfile_ptr
	movl	_a_srcfile, %edx
	movl	_a_srcfile_ptr, %eax
	addl	%edx, %eax
	movzbl	(%eax), %eax
	cmpb	$10, %al
	jne	L12
	movl	_a_srcfile_ptr, %eax
	addl	$1, %eax
	movl	%eax, _a_srcfile_ptr
	jmp	L12
L9:
	movl	-8(%ebp), %eax
	movl	%eax, %edx
	movl	-4(%ebp), %eax
	addl	$_a_linebuf, %eax
	movb	%dl, (%eax)
	movl	_a_srcfile_ptr, %eax
	addl	$1, %eax
	movl	%eax, _a_srcfile_ptr
	addl	$1, -4(%ebp)
L5:
	movl	-4(%ebp), %eax
	cmpl	$1022, %eax
	jbe	L11
	movl	-4(%ebp), %eax
	addl	$_a_linebuf, %eax
	movb	$0, (%eax)
	jmp	L4
L12:
	nop
L4:
	leave
	.cfi_restore 5
	.cfi_def_cfa 4, 4
	ret
	.cfi_endproc
LFE1:
	.data
LC130:
	.ascii "Line %d *** %s\12\0"
LC131:
	.ascii "%d:\11%s\12\0"
	.text
	.globl	_a_error_message
	.def	_a_error_message;	.scl	2;	.type	32;	.endef
_a_error_message:
LFB2:
	.cfi_startproc
	pushl	%ebp
	.cfi_def_cfa_offset 8
	.cfi_offset 5, -8
	movl	%esp, %ebp
	.cfi_def_cfa_register 5
	subl	$24, %esp
	movl	8(%ebp), %eax
	movl	_a_error(,%eax,4), %edx
	movl	_cmd_sht, %eax
	movl	%edx, 12(%esp)
	movl	12(%ebp), %edx
	movl	%edx, 8(%esp)
	movl	$LC130, 4(%esp)
	movl	%eax, (%esp)
	call	_ut_printf
	movl	_a_linenumb, %edx
	movl	_cmd_sht, %eax
	movl	$_a_linebuf, 12(%esp)
	movl	%edx, 8(%esp)
	movl	$LC131, 4(%esp)
	movl	%eax, (%esp)
	call	_ut_printf
	nop
	leave
	.cfi_restore 5
	.cfi_def_cfa 4, 4
	ret
	.cfi_endproc
LFE2:
	.globl	_is_symtop
	.def	_is_symtop;	.scl	2;	.type	32;	.endef
_is_symtop:
LFB3:
	.cfi_startproc
	pushl	%ebp
	.cfi_def_cfa_offset 8
	.cfi_offset 5, -8
	movl	%esp, %ebp
	.cfi_def_cfa_register 5
	movl	_a_linebufp, %eax
	movzbl	(%eax), %eax
	cmpb	$46, %al
	je	L15
	movl	_a_linebufp, %eax
	movzbl	(%eax), %eax
	cmpb	$95, %al
	je	L15
	movl	_a_linebufp, %eax
	movzbl	(%eax), %eax
	cmpb	$64, %al
	je	L15
	movl	_a_linebufp, %eax
	movzbl	(%eax), %eax
	cmpb	$64, %al
	jle	L16
	movl	_a_linebufp, %eax
	movzbl	(%eax), %eax
	cmpb	$90, %al
	jle	L15
L16:
	movl	_a_linebufp, %eax
	movzbl	(%eax), %eax
	cmpb	$96, %al
	jle	L17
	movl	_a_linebufp, %eax
	movzbl	(%eax), %eax
	cmpb	$122, %al
	jg	L17
L15:
	movl	$1, %eax
	jmp	L18
L17:
	movl	$0, %eax
L18:
	popl	%ebp
	.cfi_restore 5
	.cfi_def_cfa 4, 4
	ret
	.cfi_endproc
LFE3:
	.globl	_is_symbody
	.def	_is_symbody;	.scl	2;	.type	32;	.endef
_is_symbody:
LFB4:
	.cfi_startproc
	pushl	%ebp
	.cfi_def_cfa_offset 8
	.cfi_offset 5, -8
	movl	%esp, %ebp
	.cfi_def_cfa_register 5
	call	_is_symtop
	testl	%eax, %eax
	je	L20
	movl	$1, %eax
	jmp	L21
L20:
	movl	_a_linebufp, %eax
	movzbl	(%eax), %eax
	cmpb	$47, %al
	jle	L22
	movl	_a_linebufp, %eax
	movzbl	(%eax), %eax
	cmpb	$57, %al
	jg	L22
	movl	$1, %eax
	jmp	L21
L22:
	movl	$0, %eax
L21:
	popl	%ebp
	.cfi_restore 5
	.cfi_def_cfa 4, 4
	ret
	.cfi_endproc
LFE4:
	.globl	_a_getsym
	.def	_a_getsym;	.scl	2;	.type	32;	.endef
_a_getsym:
LFB5:
	.cfi_startproc
	pushl	%ebp
	.cfi_def_cfa_offset 8
	.cfi_offset 5, -8
	movl	%esp, %ebp
	.cfi_def_cfa_register 5
	subl	$40, %esp
	call	_a_spskip
	call	_is_symtop
	testl	%eax, %eax
	jne	L24
	movl	$360, 4(%esp)
	movl	$1, (%esp)
	call	_a_error_message
	movl	$-1, %eax
	jmp	L25
L24:
	movl	$0, -12(%ebp)
	jmp	L26
L29:
	call	_is_symbody
	testl	%eax, %eax
	je	L27
	movl	_a_linebufp, %eax
	leal	1(%eax), %edx
	movl	%edx, _a_linebufp
	movzbl	(%eax), %eax
	movl	-12(%ebp), %edx
	addl	$_a_symbuf, %edx
	movb	%al, (%edx)
	jmp	L30
L27:
	movl	-12(%ebp), %eax
	addl	$_a_symbuf, %eax
	movb	$0, (%eax)
	movl	$0, %eax
	jmp	L25
L30:
	addl	$1, -12(%ebp)
L26:
	cmpl	$62, -12(%ebp)
	jle	L29
	movl	-12(%ebp), %eax
	addl	$_a_symbuf, %eax
	movb	$0, (%eax)
	movl	$0, %eax
L25:
	leave
	.cfi_restore 5
	.cfi_def_cfa 4, 4
	ret
	.cfi_endproc
LFE5:
	.globl	_a_symsrch
	.def	_a_symsrch;	.scl	2;	.type	32;	.endef
_a_symsrch:
LFB6:
	.cfi_startproc
	pushl	%ebp
	.cfi_def_cfa_offset 8
	.cfi_offset 5, -8
	movl	%esp, %ebp
	.cfi_def_cfa_register 5
	subl	$40, %esp
	movl	$0, -12(%ebp)
	jmp	L32
L35:
	movl	-12(%ebp), %edx
	movl	%edx, %eax
	sall	$3, %eax
	addl	%edx, %eax
	sall	$3, %eax
	addl	$_a_symtbl, %eax
	movl	%eax, 4(%esp)
	movl	$_a_symbuf, (%esp)
	call	_strcmp
	testl	%eax, %eax
	jne	L33
	movl	-12(%ebp), %eax
	jmp	L34
L33:
	addl	$1, -12(%ebp)
L32:
	movl	_a_symtbl_ptr, %eax
	cmpl	%eax, -12(%ebp)
	jl	L35
	movl	$-1, %eax
L34:
	leave
	.cfi_restore 5
	.cfi_def_cfa 4, 4
	ret
	.cfi_endproc
LFE6:
	.data
LC132:
	.ascii "%08x  \0"
LC133:
	.ascii "%02x\0"
LC134:
	.ascii "  \0"
LC135:
	.ascii "%5d:\11%s\12\0"
	.text
	.globl	_a_listout
	.def	_a_listout;	.scl	2;	.type	32;	.endef
_a_listout:
LFB7:
	.cfi_startproc
	pushl	%ebp
	.cfi_def_cfa_offset 8
	.cfi_offset 5, -8
	movl	%esp, %ebp
	.cfi_def_cfa_register 5
	subl	$40, %esp
	movl	_a_pass, %eax
	cmpl	$3, %eax
	jne	L43
	movl	_a_addr, %eax
	movl	(%eax), %edx
	movl	_cmd_sht, %eax
	movl	%edx, 8(%esp)
	movl	$LC132, 4(%esp)
	movl	%eax, (%esp)
	call	_ut_printf
	movl	$0, -12(%ebp)
	jmp	L39
L42:
	movl	_a_inst_ptr, %eax
	cmpl	%eax, -12(%ebp)
	jge	L40
	movl	-12(%ebp), %eax
	addl	$_a_inst, %eax
	movzbl	(%eax), %eax
	movzbl	%al, %edx
	movl	_cmd_sht, %eax
	movl	%edx, 8(%esp)
	movl	$LC133, 4(%esp)
	movl	%eax, (%esp)
	call	_ut_printf
	jmp	L41
L40:
	movl	_cmd_sht, %eax
	movl	$LC134, 4(%esp)
	movl	%eax, (%esp)
	call	_ut_printf
L41:
	addl	$1, -12(%ebp)
L39:
	cmpl	$11, -12(%ebp)
	jle	L42
	movl	_a_linenumb, %edx
	movl	_cmd_sht, %eax
	movl	$_a_linebuf, 12(%esp)
	movl	%edx, 8(%esp)
	movl	$LC135, 4(%esp)
	movl	%eax, (%esp)
	call	_ut_printf
	jmp	L36
L43:
	nop
L36:
	leave
	.cfi_restore 5
	.cfi_def_cfa 4, 4
	ret
	.cfi_endproc
LFE7:
	.data
LC136:
	.ascii "\12\0"
	.text
	.globl	_a_listout_nosrc
	.def	_a_listout_nosrc;	.scl	2;	.type	32;	.endef
_a_listout_nosrc:
LFB8:
	.cfi_startproc
	pushl	%ebp
	.cfi_def_cfa_offset 8
	.cfi_offset 5, -8
	movl	%esp, %ebp
	.cfi_def_cfa_register 5
	subl	$40, %esp
	movl	_a_pass, %eax
	cmpl	$3, %eax
	jne	L51
	movl	_a_addr, %eax
	movl	(%eax), %edx
	movl	_cmd_sht, %eax
	movl	%edx, 8(%esp)
	movl	$LC132, 4(%esp)
	movl	%eax, (%esp)
	call	_ut_printf
	movl	$0, -12(%ebp)
	jmp	L47
L50:
	movl	_a_inst_ptr, %eax
	cmpl	%eax, -12(%ebp)
	jge	L48
	movl	-12(%ebp), %eax
	addl	$_a_inst, %eax
	movzbl	(%eax), %eax
	movzbl	%al, %edx
	movl	_cmd_sht, %eax
	movl	%edx, 8(%esp)
	movl	$LC133, 4(%esp)
	movl	%eax, (%esp)
	call	_ut_printf
	jmp	L49
L48:
	movl	_cmd_sht, %eax
	movl	$LC134, 4(%esp)
	movl	%eax, (%esp)
	call	_ut_printf
L49:
	addl	$1, -12(%ebp)
L47:
	cmpl	$9, -12(%ebp)
	jle	L50
	movl	_cmd_sht, %eax
	movl	$LC136, 4(%esp)
	movl	%eax, (%esp)
	call	_ut_printf
	jmp	L44
L51:
	nop
L44:
	leave
	.cfi_restore 5
	.cfi_def_cfa 4, 4
	ret
	.cfi_endproc
LFE8:
	.globl	_a_objout
	.def	_a_objout;	.scl	2;	.type	32;	.endef
_a_objout:
LFB9:
	.cfi_startproc
	pushl	%ebp
	.cfi_def_cfa_offset 8
	.cfi_offset 5, -8
	movl	%esp, %ebp
	.cfi_def_cfa_register 5
	subl	$16, %esp
	movl	_a_pass, %eax
	cmpl	$3, %eax
	jne	L59
	movl	_a_inst_ptr, %eax
	addl	$5, %eax
	movl	%eax, -12(%ebp)
	movl	_a_objfile, %ecx
	movl	_a_objfile_ptr, %eax
	leal	1(%eax), %edx
	movl	%edx, _a_objfile_ptr
	addl	%ecx, %eax
	movl	-12(%ebp), %edx
	movb	%dl, (%eax)
	movl	_a_objfile, %ecx
	movl	_a_objfile_ptr, %eax
	leal	1(%eax), %edx
	movl	%edx, _a_objfile_ptr
	addl	%ecx, %eax
	movb	$1, (%eax)
	movl	_a_addr, %eax
	movl	(%eax), %eax
	movl	%eax, -8(%ebp)
	movl	$0, -4(%ebp)
	jmp	L55
L56:
	movl	_a_objfile, %ecx
	movl	_a_objfile_ptr, %eax
	leal	1(%eax), %edx
	movl	%edx, _a_objfile_ptr
	addl	%ecx, %eax
	movl	-8(%ebp), %edx
	movb	%dl, (%eax)
	sarl	$8, -8(%ebp)
	addl	$1, -4(%ebp)
L55:
	cmpl	$3, -4(%ebp)
	jle	L56
	movl	$0, -4(%ebp)
	jmp	L57
L58:
	movl	_a_objfile, %ecx
	movl	_a_objfile_ptr, %eax
	leal	1(%eax), %edx
	movl	%edx, _a_objfile_ptr
	leal	(%ecx,%eax), %edx
	movl	-4(%ebp), %eax
	addl	$_a_inst, %eax
	movzbl	(%eax), %eax
	movb	%al, (%edx)
	addl	$1, -4(%ebp)
L57:
	movl	_a_inst_ptr, %eax
	cmpl	%eax, -4(%ebp)
	jl	L58
	jmp	L52
L59:
	nop
L52:
	leave
	.cfi_restore 5
	.cfi_def_cfa 4, 4
	ret
	.cfi_endproc
LFE9:
	.globl	_a_getnumb
	.def	_a_getnumb;	.scl	2;	.type	32;	.endef
_a_getnumb:
LFB10:
	.cfi_startproc
	pushl	%ebp
	.cfi_def_cfa_offset 8
	.cfi_offset 5, -8
	movl	%esp, %ebp
	.cfi_def_cfa_register 5
	subl	$24, %esp
	call	_a_spskip
	movl	_a_linebufp, %eax
	movzbl	(%eax), %eax
	cmpb	$47, %al
	jle	L61
	movl	_a_linebufp, %eax
	movzbl	(%eax), %eax
	cmpb	$57, %al
	jle	L62
L61:
	movl	$459, 4(%esp)
	movl	$5, (%esp)
	call	_a_error_message
	movl	$-1, %eax
	jmp	L63
L62:
	movl	_a_linebufp, %eax
	movzbl	(%eax), %eax
	cmpb	$48, %al
	jne	L64
	movl	_a_linebufp, %eax
	addl	$1, %eax
	movzbl	(%eax), %eax
	cmpb	$120, %al
	jne	L64
	movl	_a_linebufp, %eax
	addl	$2, %eax
	movl	%eax, _a_linebufp
	movl	8(%ebp), %eax
	movl	$0, (%eax)
L69:
	movl	_a_linebufp, %eax
	movzbl	(%eax), %eax
	cmpb	$47, %al
	jle	L65
	movl	_a_linebufp, %eax
	movzbl	(%eax), %eax
	cmpb	$57, %al
	jg	L65
	movl	8(%ebp), %eax
	movl	(%eax), %eax
	sall	$4, %eax
	movl	%eax, %edx
	movl	_a_linebufp, %eax
	movzbl	(%eax), %eax
	movsbl	%al, %eax
	addl	%edx, %eax
	leal	-48(%eax), %edx
	movl	8(%ebp), %eax
	movl	%edx, (%eax)
	jmp	L66
L65:
	movl	_a_linebufp, %eax
	movzbl	(%eax), %eax
	cmpb	$64, %al
	jle	L67
	movl	_a_linebufp, %eax
	movzbl	(%eax), %eax
	cmpb	$70, %al
	jg	L67
	movl	8(%ebp), %eax
	movl	(%eax), %eax
	sall	$4, %eax
	movl	%eax, %edx
	movl	_a_linebufp, %eax
	movzbl	(%eax), %eax
	movsbl	%al, %eax
	addl	%edx, %eax
	leal	-55(%eax), %edx
	movl	8(%ebp), %eax
	movl	%edx, (%eax)
	jmp	L66
L67:
	movl	_a_linebufp, %eax
	movzbl	(%eax), %eax
	cmpb	$96, %al
	jle	L68
	movl	_a_linebufp, %eax
	movzbl	(%eax), %eax
	cmpb	$102, %al
	jg	L68
	movl	8(%ebp), %eax
	movl	(%eax), %eax
	sall	$4, %eax
	movl	%eax, %edx
	movl	_a_linebufp, %eax
	movzbl	(%eax), %eax
	movsbl	%al, %eax
	addl	%edx, %eax
	leal	-87(%eax), %edx
	movl	8(%ebp), %eax
	movl	%edx, (%eax)
	jmp	L66
L68:
	movl	$0, %eax
	jmp	L63
L66:
	movl	_a_linebufp, %eax
	addl	$1, %eax
	movl	%eax, _a_linebufp
	jmp	L69
L64:
	movl	8(%ebp), %eax
	movl	$0, (%eax)
L71:
	movl	_a_linebufp, %eax
	movzbl	(%eax), %eax
	cmpb	$47, %al
	jle	L70
	movl	_a_linebufp, %eax
	movzbl	(%eax), %eax
	cmpb	$57, %al
	jg	L70
	movl	8(%ebp), %eax
	movl	(%eax), %edx
	movl	%edx, %eax
	sall	$2, %eax
	addl	%edx, %eax
	addl	%eax, %eax
	movl	%eax, %edx
	movl	_a_linebufp, %eax
	movzbl	(%eax), %eax
	movsbl	%al, %eax
	addl	%edx, %eax
	leal	-48(%eax), %edx
	movl	8(%ebp), %eax
	movl	%edx, (%eax)
	movl	_a_linebufp, %eax
	addl	$1, %eax
	movl	%eax, _a_linebufp
	jmp	L71
L70:
	movl	$0, %eax
L63:
	leave
	.cfi_restore 5
	.cfi_def_cfa 4, 4
	ret
	.cfi_endproc
LFE10:
	.globl	_a_factor
	.def	_a_factor;	.scl	2;	.type	32;	.endef
_a_factor:
LFB11:
	.cfi_startproc
	pushl	%ebp
	.cfi_def_cfa_offset 8
	.cfi_offset 5, -8
	movl	%esp, %ebp
	.cfi_def_cfa_register 5
	subl	$40, %esp
	movl	8(%ebp), %eax
	movl	$0, (%eax)
	call	_a_spskip
	movl	_a_linebufp, %eax
	movzbl	(%eax), %eax
	cmpb	$47, %al
	jle	L73
	movl	_a_linebufp, %eax
	movzbl	(%eax), %eax
	cmpb	$57, %al
	jg	L73
	movl	8(%ebp), %eax
	movl	%eax, (%esp)
	call	_a_getnumb
	jmp	L74
L73:
	call	_is_symtop
	testl	%eax, %eax
	je	L75
	call	_a_getsym
	testl	%eax, %eax
	je	L76
	movl	$-1, %eax
	jmp	L74
L76:
	call	_a_symsrch
	movl	%eax, -12(%ebp)
	movl	_a_pass, %eax
	cmpl	$1, %eax
	jne	L77
	movl	8(%ebp), %eax
	movl	$0, (%eax)
	movl	$0, %eax
	jmp	L74
L77:
	cmpl	$0, -12(%ebp)
	jns	L78
	movl	$514, 4(%esp)
	movl	$4, (%esp)
	call	_a_error_message
	movl	$-1, %eax
	jmp	L74
L78:
	movl	-12(%ebp), %edx
	movl	%edx, %eax
	sall	$3, %eax
	addl	%edx, %eax
	sall	$3, %eax
	addl	$_a_symtbl+64, %eax
	movl	(%eax), %eax
	cmpl	$1000, %eax
	je	L79
	movl	-12(%ebp), %edx
	movl	%edx, %eax
	sall	$3, %eax
	addl	%edx, %eax
	sall	$3, %eax
	addl	$_a_symtbl+64, %eax
	movl	(%eax), %eax
	cmpl	$1003, %eax
	je	L79
	movl	$518, 4(%esp)
	movl	$5, (%esp)
	call	_a_error_message
	movl	$-1, %eax
	jmp	L74
L79:
	movl	-12(%ebp), %edx
	movl	%edx, %eax
	sall	$3, %eax
	addl	%edx, %eax
	sall	$3, %eax
	addl	$_a_symtbl+68, %eax
	movl	(%eax), %edx
	movl	8(%ebp), %eax
	movl	%edx, (%eax)
	movl	$0, %eax
	jmp	L74
L75:
	movl	_a_linebufp, %eax
	movzbl	(%eax), %eax
	cmpb	$40, %al
	jne	L80
	movl	_a_linebufp, %eax
	addl	$1, %eax
	movl	%eax, _a_linebufp
	movl	8(%ebp), %eax
	movl	%eax, (%esp)
	call	_a_expr
	testl	%eax, %eax
	je	L81
	movl	$-1, %eax
	jmp	L74
L81:
	call	_a_spskip
	movl	_a_linebufp, %eax
	movzbl	(%eax), %eax
	cmpb	$41, %al
	jne	L82
	movl	_a_linebufp, %eax
	addl	$1, %eax
	movl	%eax, _a_linebufp
	movl	$0, %eax
	jmp	L74
L82:
	movl	$535, 4(%esp)
	movl	$5, (%esp)
	call	_a_error_message
	movl	$-1, %eax
	jmp	L74
L80:
	movl	_a_linebufp, %eax
	movzbl	(%eax), %eax
	cmpb	$36, %al
	jne	L83
	movl	_a_linebufp, %eax
	addl	$1, %eax
	movl	%eax, _a_linebufp
	movl	_a_addr, %eax
	movl	(%eax), %edx
	movl	8(%ebp), %eax
	movl	%edx, (%eax)
	movl	$0, %eax
	jmp	L74
L83:
	movl	_a_linebufp, %eax
	movzbl	(%eax), %eax
	cmpb	$39, %al
	jne	L84
	movl	_a_linebufp, %eax
	addl	$1, %eax
	movl	%eax, _a_linebufp
	movl	_a_linebufp, %eax
	movzbl	(%eax), %eax
	cmpb	$92, %al
	jne	L85
	movl	_a_linebufp, %eax
	addl	$1, %eax
	movl	%eax, _a_linebufp
	movl	_a_linebufp, %eax
	movzbl	(%eax), %eax
	cmpb	$92, %al
	jne	L86
	movl	8(%ebp), %eax
	movl	$92, (%eax)
	jmp	L87
L86:
	movl	_a_linebufp, %eax
	movzbl	(%eax), %eax
	cmpb	$114, %al
	jne	L88
	movl	8(%ebp), %eax
	movl	$13, (%eax)
	jmp	L87
L88:
	movl	_a_linebufp, %eax
	movzbl	(%eax), %eax
	cmpb	$110, %al
	jne	L89
	movl	8(%ebp), %eax
	movl	$10, (%eax)
	jmp	L87
L89:
	movl	_a_linebufp, %eax
	movzbl	(%eax), %eax
	cmpb	$98, %al
	jne	L90
	movl	8(%ebp), %eax
	movl	$8, (%eax)
	jmp	L87
L90:
	movl	_a_linebufp, %eax
	movzbl	(%eax), %eax
	cmpb	$116, %al
	jne	L91
	movl	8(%ebp), %eax
	movl	$9, (%eax)
	jmp	L87
L91:
	movl	_a_linebufp, %eax
	movzbl	(%eax), %eax
	cmpb	$39, %al
	jne	L92
	movl	8(%ebp), %eax
	movl	$39, (%eax)
	jmp	L87
L92:
	movl	_a_linebufp, %eax
	movzbl	(%eax), %eax
	cmpb	$34, %al
	jne	L93
	movl	8(%ebp), %eax
	movl	$34, (%eax)
	jmp	L87
L93:
	movl	_a_linebufp, %eax
	movzbl	(%eax), %eax
	movsbl	%al, %edx
	movl	8(%ebp), %eax
	movl	%edx, (%eax)
	jmp	L87
L85:
	movl	_a_linebufp, %eax
	movzbl	(%eax), %eax
	movsbl	%al, %edx
	movl	8(%ebp), %eax
	movl	%edx, (%eax)
L87:
	movl	_a_linebufp, %eax
	addl	$1, %eax
	movl	%eax, _a_linebufp
	movl	_a_linebufp, %eax
	movzbl	(%eax), %eax
	cmpb	$39, %al
	je	L94
	movl	$577, 4(%esp)
	movl	$5, (%esp)
	call	_a_error_message
	movl	$-1, %eax
	jmp	L74
L94:
	movl	_a_linebufp, %eax
	addl	$1, %eax
	movl	%eax, _a_linebufp
	movl	$0, %eax
	jmp	L74
L84:
	movl	$0, %eax
L74:
	leave
	.cfi_restore 5
	.cfi_def_cfa 4, 4
	ret
	.cfi_endproc
LFE11:
	.globl	_a_factor1
	.def	_a_factor1;	.scl	2;	.type	32;	.endef
_a_factor1:
LFB12:
	.cfi_startproc
	pushl	%ebp
	.cfi_def_cfa_offset 8
	.cfi_offset 5, -8
	movl	%esp, %ebp
	.cfi_def_cfa_register 5
	subl	$40, %esp
	movl	8(%ebp), %eax
	movl	%eax, (%esp)
	call	_a_factor
	testl	%eax, %eax
	je	L96
	movl	$-1, %eax
	jmp	L102
L96:
	call	_a_spskip
	movl	_a_linebufp, %eax
	movzbl	(%eax), %eax
	cmpb	$38, %al
	jne	L98
	movl	_a_linebufp, %eax
	addl	$1, %eax
	movl	%eax, _a_linebufp
	leal	-12(%ebp), %eax
	movl	%eax, (%esp)
	call	_a_factor
	testl	%eax, %eax
	je	L99
	movl	$-1, %eax
	jmp	L102
L99:
	movl	8(%ebp), %eax
	movl	(%eax), %edx
	movl	-12(%ebp), %eax
	andl	%eax, %edx
	movl	8(%ebp), %eax
	movl	%edx, (%eax)
	jmp	L100
L98:
	movl	_a_linebufp, %eax
	movzbl	(%eax), %eax
	cmpb	$124, %al
	jne	L100
	movl	_a_linebufp, %eax
	addl	$1, %eax
	movl	%eax, _a_linebufp
	leal	-12(%ebp), %eax
	movl	%eax, (%esp)
	call	_a_factor
	testl	%eax, %eax
	je	L101
	movl	$-1, %eax
	jmp	L102
L101:
	movl	8(%ebp), %eax
	movl	(%eax), %edx
	movl	-12(%ebp), %eax
	orl	%eax, %edx
	movl	8(%ebp), %eax
	movl	%edx, (%eax)
L100:
	movl	$0, %eax
L102:
	leave
	.cfi_restore 5
	.cfi_def_cfa 4, 4
	ret
	.cfi_endproc
LFE12:
	.globl	_a_term
	.def	_a_term;	.scl	2;	.type	32;	.endef
_a_term:
LFB13:
	.cfi_startproc
	pushl	%ebp
	.cfi_def_cfa_offset 8
	.cfi_offset 5, -8
	movl	%esp, %ebp
	.cfi_def_cfa_register 5
	subl	$40, %esp
	movl	8(%ebp), %eax
	movl	%eax, (%esp)
	call	_a_factor1
	testl	%eax, %eax
	je	L104
	movl	$-1, %eax
	jmp	L113
L104:
	call	_a_spskip
	movl	_a_linebufp, %eax
	movzbl	(%eax), %eax
	cmpb	$42, %al
	jne	L106
	movl	_a_linebufp, %eax
	addl	$1, %eax
	movl	%eax, _a_linebufp
	leal	-12(%ebp), %eax
	movl	%eax, (%esp)
	call	_a_factor1
	testl	%eax, %eax
	je	L107
	movl	$-1, %eax
	jmp	L113
L107:
	movl	8(%ebp), %eax
	movl	(%eax), %edx
	movl	-12(%ebp), %eax
	imull	%eax, %edx
	movl	8(%ebp), %eax
	movl	%edx, (%eax)
	jmp	L104
L106:
	movl	_a_linebufp, %eax
	movzbl	(%eax), %eax
	cmpb	$47, %al
	jne	L109
	movl	_a_linebufp, %eax
	addl	$1, %eax
	movl	%eax, _a_linebufp
	leal	-12(%ebp), %eax
	movl	%eax, (%esp)
	call	_a_factor1
	testl	%eax, %eax
	je	L110
	movl	$-1, %eax
	jmp	L113
L110:
	movl	8(%ebp), %eax
	movl	(%eax), %eax
	movl	-12(%ebp), %ecx
	movl	$0, %edx
	divl	%ecx
	movl	%eax, %edx
	movl	8(%ebp), %eax
	movl	%edx, (%eax)
	jmp	L104
L109:
	movl	_a_linebufp, %eax
	movzbl	(%eax), %eax
	cmpb	$37, %al
	jne	L111
	movl	_a_linebufp, %eax
	addl	$1, %eax
	movl	%eax, _a_linebufp
	leal	-12(%ebp), %eax
	movl	%eax, (%esp)
	call	_a_factor1
	testl	%eax, %eax
	je	L112
	movl	$-1, %eax
	jmp	L113
L112:
	movl	8(%ebp), %eax
	movl	(%eax), %eax
	movl	-12(%ebp), %ecx
	movl	$0, %edx
	divl	%ecx
	movl	8(%ebp), %eax
	movl	%edx, (%eax)
	jmp	L104
L111:
	movl	$0, %eax
L113:
	leave
	.cfi_restore 5
	.cfi_def_cfa 4, 4
	ret
	.cfi_endproc
LFE13:
	.globl	_a_expr
	.def	_a_expr;	.scl	2;	.type	32;	.endef
_a_expr:
LFB14:
	.cfi_startproc
	pushl	%ebp
	.cfi_def_cfa_offset 8
	.cfi_offset 5, -8
	movl	%esp, %ebp
	.cfi_def_cfa_register 5
	subl	$40, %esp
	movl	$0, -12(%ebp)
	call	_a_spskip
	movl	_a_linebufp, %eax
	movzbl	(%eax), %eax
	cmpb	$45, %al
	jne	L115
	movl	_a_linebufp, %eax
	addl	$1, %eax
	movl	%eax, _a_linebufp
	movl	$1, -12(%ebp)
L115:
	movl	8(%ebp), %eax
	movl	%eax, (%esp)
	call	_a_term
	testl	%eax, %eax
	je	L116
	movl	$-1, %eax
	jmp	L125
L116:
	cmpl	$0, -12(%ebp)
	je	L124
	movl	8(%ebp), %eax
	movl	(%eax), %eax
	negl	%eax
	movl	%eax, %edx
	movl	8(%ebp), %eax
	movl	%edx, (%eax)
L124:
	call	_a_spskip
	movl	_a_linebufp, %eax
	movzbl	(%eax), %eax
	cmpb	$43, %al
	jne	L119
	movl	_a_linebufp, %eax
	addl	$1, %eax
	movl	%eax, _a_linebufp
	leal	-16(%ebp), %eax
	movl	%eax, (%esp)
	call	_a_term
	testl	%eax, %eax
	je	L120
	movl	$-1, %eax
	jmp	L125
L120:
	movl	8(%ebp), %eax
	movl	(%eax), %edx
	movl	-16(%ebp), %eax
	addl	%eax, %edx
	movl	8(%ebp), %eax
	movl	%edx, (%eax)
	jmp	L124
L119:
	movl	_a_linebufp, %eax
	movzbl	(%eax), %eax
	cmpb	$45, %al
	jne	L122
	movl	_a_linebufp, %eax
	addl	$1, %eax
	movl	%eax, _a_linebufp
	leal	-16(%ebp), %eax
	movl	%eax, (%esp)
	call	_a_term
	testl	%eax, %eax
	je	L123
	movl	$-1, %eax
	jmp	L125
L123:
	movl	8(%ebp), %eax
	movl	(%eax), %eax
	movl	-16(%ebp), %ecx
	subl	%ecx, %eax
	movl	%eax, %edx
	movl	8(%ebp), %eax
	movl	%edx, (%eax)
	jmp	L124
L122:
	movl	$0, %eax
L125:
	leave
	.cfi_restore 5
	.cfi_def_cfa 4, 4
	ret
	.cfi_endproc
LFE14:
	.globl	_a_get_regoperand
	.def	_a_get_regoperand;	.scl	2;	.type	32;	.endef
_a_get_regoperand:
LFB15:
	.cfi_startproc
	pushl	%ebp
	.cfi_def_cfa_offset 8
	.cfi_offset 5, -8
	movl	%esp, %ebp
	.cfi_def_cfa_register 5
	subl	$24, %esp
	call	_a_spskip
	call	_is_symtop
	testl	%eax, %eax
	jne	L127
	movl	$0, %eax
	jmp	L128
L127:
	movl	_a_linebufp, %eax
	movl	%eax, -12(%ebp)
	call	_a_getsym
	testl	%eax, %eax
	je	L129
	movl	$0, %eax
	jmp	L128
L129:
	call	_a_symsrch
	movl	%eax, -16(%ebp)
	cmpl	$0, -16(%ebp)
	js	L130
	movl	-16(%ebp), %edx
	movl	%edx, %eax
	sall	$3, %eax
	addl	%edx, %eax
	sall	$3, %eax
	addl	$_a_symtbl+64, %eax
	movl	(%eax), %eax
	cmpl	$200, %eax
	jne	L130
	movl	-16(%ebp), %edx
	movl	%edx, %eax
	sall	$3, %eax
	addl	%edx, %eax
	sall	$3, %eax
	addl	$_a_symtbl+68, %eax
	movl	(%eax), %eax
	shrl	$8, %eax
	movl	%eax, %edx
	movl	8(%ebp), %eax
	movl	%edx, (%eax)
	movl	-16(%ebp), %edx
	movl	%edx, %eax
	sall	$3, %eax
	addl	%edx, %eax
	sall	$3, %eax
	addl	$_a_symtbl+68, %eax
	movl	(%eax), %eax
	movzbl	%al, %edx
	movl	8(%ebp), %eax
	movl	%edx, 4(%eax)
	movl	$1, %eax
	jmp	L128
L130:
	movl	-12(%ebp), %eax
	movl	%eax, _a_linebufp
	movl	$0, %eax
L128:
	leave
	.cfi_restore 5
	.cfi_def_cfa 4, 4
	ret
	.cfi_endproc
LFE15:
	.globl	_a_get_const_operand
	.def	_a_get_const_operand;	.scl	2;	.type	32;	.endef
_a_get_const_operand:
LFB16:
	.cfi_startproc
	pushl	%ebp
	.cfi_def_cfa_offset 8
	.cfi_offset 5, -8
	movl	%esp, %ebp
	.cfi_def_cfa_register 5
	subl	$40, %esp
	call	_a_spskip
	call	_is_symtop
	testl	%eax, %eax
	je	L132
	movl	_a_linebufp, %eax
	movl	%eax, -12(%ebp)
	call	_a_getsym
	testl	%eax, %eax
	je	L133
	movl	$-1, %eax
	jmp	L134
L133:
	call	_a_symsrch
	movl	%eax, -16(%ebp)
	cmpl	$0, -16(%ebp)
	js	L135
	movl	-16(%ebp), %edx
	movl	%edx, %eax
	sall	$3, %eax
	addl	%edx, %eax
	sall	$3, %eax
	addl	$_a_symtbl+64, %eax
	movl	(%eax), %eax
	cmpl	$1007, %eax
	jne	L135
	movl	8(%ebp), %eax
	addl	$8, %eax
	movl	%eax, (%esp)
	call	_a_expr
	testl	%eax, %eax
	je	L136
	movl	$-1, %eax
	jmp	L134
L136:
	movl	-16(%ebp), %edx
	movl	%edx, %eax
	sall	$3, %eax
	addl	%edx, %eax
	sall	$3, %eax
	addl	$_a_symtbl+68, %eax
	movl	(%eax), %eax
	addl	$9, %eax
	movl	%eax, %edx
	movl	8(%ebp), %eax
	movl	%edx, (%eax)
	movl	$0, %eax
	jmp	L134
L135:
	movl	-12(%ebp), %eax
	movl	%eax, _a_linebufp
L132:
	movl	8(%ebp), %eax
	addl	$8, %eax
	movl	%eax, (%esp)
	call	_a_expr
	testl	%eax, %eax
	je	L137
	movl	$-1, %eax
	jmp	L134
L137:
	movl	8(%ebp), %eax
	movl	8(%eax), %eax
	cmpl	$-128, %eax
	jl	L138
	movl	8(%ebp), %eax
	movl	8(%eax), %eax
	cmpl	$127, %eax
	jg	L138
	movl	8(%ebp), %eax
	movl	$10, (%eax)
	jmp	L139
L138:
	movl	8(%ebp), %eax
	movl	8(%eax), %eax
	cmpl	$-32768, %eax
	jl	L140
	movl	8(%ebp), %eax
	movl	8(%eax), %eax
	cmpl	$32767, %eax
	jg	L140
	movl	8(%ebp), %eax
	movl	$11, (%eax)
	jmp	L139
L140:
	movl	8(%ebp), %eax
	movl	$12, (%eax)
L139:
	movl	$0, %eax
L134:
	leave
	.cfi_restore 5
	.cfi_def_cfa 4, 4
	ret
	.cfi_endproc
LFE16:
	.globl	_a_get_EA_operand
	.def	_a_get_EA_operand;	.scl	2;	.type	32;	.endef
_a_get_EA_operand:
LFB17:
	.cfi_startproc
	pushl	%ebp
	.cfi_def_cfa_offset 8
	.cfi_offset 5, -8
	movl	%esp, %ebp
	.cfi_def_cfa_register 5
	subl	$24, %esp
	movl	$16, 8(%esp)
	movl	$0, 4(%esp)
	movl	8(%ebp), %eax
	movl	%eax, (%esp)
	call	_memset
	movl	$16, 8(%esp)
	movl	$0, 4(%esp)
	movl	12(%ebp), %eax
	movl	%eax, (%esp)
	call	_memset
	movl	$16, 8(%esp)
	movl	$0, 4(%esp)
	movl	16(%ebp), %eax
	movl	%eax, (%esp)
	call	_memset
	call	_a_spskip
	movl	_a_linebufp, %eax
	movzbl	(%eax), %eax
	cmpb	$91, %al
	je	L142
	movl	$767, 4(%esp)
	movl	$5, (%esp)
	call	_a_error_message
	movl	$-1, %eax
	jmp	L143
L142:
	movl	_a_linebufp, %eax
	addl	$1, %eax
	movl	%eax, _a_linebufp
	movl	8(%ebp), %eax
	movl	%eax, (%esp)
	call	_a_get_regoperand
	testl	%eax, %eax
	jne	L144
	movl	8(%ebp), %eax
	movl	%eax, (%esp)
	call	_a_get_const_operand
	testl	%eax, %eax
	je	L145
	movl	$-1, %eax
	jmp	L143
L145:
	call	_a_spskip
	movl	_a_linebufp, %eax
	movzbl	(%eax), %eax
	cmpb	$93, %al
	je	L146
	movl	$777, 4(%esp)
	movl	$5, (%esp)
	call	_a_error_message
	movl	$-1, %eax
	jmp	L143
L146:
	movl	_a_linebufp, %eax
	addl	$1, %eax
	movl	%eax, _a_linebufp
	movl	$0, %eax
	jmp	L143
L144:
	call	_a_spskip
	movl	_a_linebufp, %eax
	movzbl	(%eax), %eax
	cmpb	$93, %al
	jne	L147
	movl	_a_linebufp, %eax
	addl	$1, %eax
	movl	%eax, _a_linebufp
	movl	$0, %eax
	jmp	L143
L147:
	movl	_a_linebufp, %eax
	movzbl	(%eax), %eax
	cmpb	$43, %al
	jne	L148
	movl	_a_linebufp, %eax
	addl	$1, %eax
	movl	%eax, _a_linebufp
	movl	12(%ebp), %eax
	movl	%eax, (%esp)
	call	_a_get_regoperand
	testl	%eax, %eax
	jne	L149
	movl	12(%ebp), %eax
	movl	%eax, (%esp)
	call	_a_get_const_operand
	testl	%eax, %eax
	je	L150
	movl	$-1, %eax
	jmp	L143
L150:
	call	_a_spskip
	movl	_a_linebufp, %eax
	movzbl	(%eax), %eax
	cmpb	$93, %al
	je	L151
	movl	$797, 4(%esp)
	movl	$5, (%esp)
	call	_a_error_message
	movl	$-1, %eax
	jmp	L143
L151:
	movl	_a_linebufp, %eax
	addl	$1, %eax
	movl	%eax, _a_linebufp
	movl	$0, %eax
	jmp	L143
L148:
	movl	_a_linebufp, %eax
	movzbl	(%eax), %eax
	cmpb	$45, %al
	jne	L149
	movl	12(%ebp), %eax
	movl	%eax, (%esp)
	call	_a_get_const_operand
	testl	%eax, %eax
	je	L152
	movl	$-1, %eax
	jmp	L143
L152:
	call	_a_spskip
	movl	_a_linebufp, %eax
	movzbl	(%eax), %eax
	cmpb	$93, %al
	je	L153
	movl	$810, 4(%esp)
	movl	$5, (%esp)
	call	_a_error_message
	movl	$-1, %eax
	jmp	L143
L153:
	movl	_a_linebufp, %eax
	addl	$1, %eax
	movl	%eax, _a_linebufp
	movl	$0, %eax
	jmp	L143
L149:
	call	_a_spskip
	movl	_a_linebufp, %eax
	movzbl	(%eax), %eax
	cmpb	$93, %al
	jne	L154
	movl	_a_linebufp, %eax
	addl	$1, %eax
	movl	%eax, _a_linebufp
	movl	$0, %eax
	jmp	L143
L154:
	movl	_a_linebufp, %eax
	movzbl	(%eax), %eax
	cmpb	$43, %al
	jne	L155
	movl	_a_linebufp, %eax
	addl	$1, %eax
	movl	%eax, _a_linebufp
	jmp	L156
L155:
	movl	_a_linebufp, %eax
	movzbl	(%eax), %eax
	cmpb	$45, %al
	je	L156
	movl	$828, 4(%esp)
	movl	$5, (%esp)
	call	_a_error_message
	movl	$-1, %eax
	jmp	L143
L156:
	movl	16(%ebp), %eax
	movl	%eax, (%esp)
	call	_a_get_const_operand
	testl	%eax, %eax
	je	L157
	movl	$-1, %eax
	jmp	L143
L157:
	call	_a_spskip
	movl	_a_linebufp, %eax
	movzbl	(%eax), %eax
	cmpb	$93, %al
	je	L158
	movl	$836, 4(%esp)
	movl	$5, (%esp)
	call	_a_error_message
	movl	$-1, %eax
	jmp	L143
L158:
	movl	_a_linebufp, %eax
	addl	$1, %eax
	movl	%eax, _a_linebufp
	movl	$0, %eax
L143:
	leave
	.cfi_restore 5
	.cfi_def_cfa 4, 4
	ret
	.cfi_endproc
LFE17:
	.globl	_a_make_EA_reg
	.def	_a_make_EA_reg;	.scl	2;	.type	32;	.endef
_a_make_EA_reg:
LFB18:
	.cfi_startproc
	pushl	%ebp
	.cfi_def_cfa_offset 8
	.cfi_offset 5, -8
	movl	%esp, %ebp
	.cfi_def_cfa_register 5
	subl	$24, %esp
	movl	12(%ebp), %eax
	movl	(%eax), %eax
	cmpl	$3, %eax
	jne	L160
	movl	12(%ebp), %eax
	movl	4(%eax), %eax
	cmpl	$4, %eax
	jne	L161
	movl	8(%ebp), %eax
	movl	$23, (%eax)
	movl	8(%ebp), %eax
	movb	$4, 12(%eax)
	movl	8(%ebp), %eax
	movb	$36, 13(%eax)
	jmp	L162
L161:
	movl	12(%ebp), %eax
	movl	4(%eax), %eax
	cmpl	$5, %eax
	jne	L163
	movl	8(%ebp), %eax
	movl	$23, (%eax)
	movl	8(%ebp), %eax
	movb	$69, 12(%eax)
	movl	8(%ebp), %eax
	movb	$0, 13(%eax)
	jmp	L162
L163:
	movl	8(%ebp), %eax
	movl	$20, (%eax)
	movl	12(%ebp), %eax
	movl	4(%eax), %eax
	movl	%eax, %edx
	movl	8(%ebp), %eax
	movb	%dl, 12(%eax)
	jmp	L162
L160:
	movl	$862, 4(%esp)
	movl	$5, (%esp)
	call	_a_error_message
	movl	$-1, %eax
	jmp	L164
L162:
	movl	$0, %eax
L164:
	leave
	.cfi_restore 5
	.cfi_def_cfa 4, 4
	ret
	.cfi_endproc
LFE18:
	.globl	_a_make_EA_reg_disp
	.def	_a_make_EA_reg_disp;	.scl	2;	.type	32;	.endef
_a_make_EA_reg_disp:
LFB19:
	.cfi_startproc
	pushl	%ebp
	.cfi_def_cfa_offset 8
	.cfi_offset 5, -8
	movl	%esp, %ebp
	.cfi_def_cfa_register 5
	subl	$24, %esp
	movl	12(%ebp), %eax
	movl	(%eax), %eax
	cmpl	$3, %eax
	jne	L166
	movl	16(%ebp), %eax
	movl	(%eax), %eax
	cmpl	$10, %eax
	jne	L167
	movl	12(%ebp), %eax
	movl	4(%eax), %eax
	cmpl	$4, %eax
	jne	L168
	movl	8(%ebp), %eax
	movl	$24, (%eax)
	movl	8(%ebp), %eax
	movb	$68, 12(%eax)
	movl	8(%ebp), %eax
	movb	$36, 13(%eax)
	movl	16(%ebp), %eax
	movl	8(%eax), %edx
	movl	8(%ebp), %eax
	movl	%edx, 8(%eax)
	movl	$0, %eax
	jmp	L169
L168:
	movl	8(%ebp), %eax
	movl	$21, (%eax)
	movl	12(%ebp), %eax
	movl	4(%eax), %eax
	leal	64(%eax), %edx
	movl	8(%ebp), %eax
	movb	%dl, 12(%eax)
	movl	16(%ebp), %eax
	movl	8(%eax), %edx
	movl	8(%ebp), %eax
	movl	%edx, 8(%eax)
	movl	$0, %eax
	jmp	L169
L167:
	movl	16(%ebp), %eax
	movl	(%eax), %eax
	cmpl	$11, %eax
	jne	L170
	movl	16(%ebp), %eax
	movl	$12, (%eax)
L170:
	movl	16(%ebp), %eax
	movl	(%eax), %eax
	cmpl	$12, %eax
	jne	L171
	movl	12(%ebp), %eax
	movl	4(%eax), %eax
	cmpl	$4, %eax
	jne	L172
	movl	8(%ebp), %eax
	movl	$25, (%eax)
	movl	8(%ebp), %eax
	movb	$-124, 12(%eax)
	movl	8(%ebp), %eax
	movb	$36, 13(%eax)
	movl	16(%ebp), %eax
	movl	8(%eax), %edx
	movl	8(%ebp), %eax
	movl	%edx, 8(%eax)
	movl	$0, %eax
	jmp	L169
L172:
	movl	8(%ebp), %eax
	movl	$22, (%eax)
	movl	12(%ebp), %eax
	movl	4(%eax), %eax
	leal	-128(%eax), %edx
	movl	8(%ebp), %eax
	movb	%dl, 12(%eax)
	movl	16(%ebp), %eax
	movl	8(%eax), %edx
	movl	8(%ebp), %eax
	movl	%edx, 8(%eax)
	jmp	L171
L166:
	movl	$905, 4(%esp)
	movl	$5, (%esp)
	call	_a_error_message
	movl	$-1, %eax
	jmp	L169
L171:
	movl	$0, %eax
L169:
	leave
	.cfi_restore 5
	.cfi_def_cfa 4, 4
	ret
	.cfi_endproc
LFE19:
	.globl	_a_make_EA_reg_reg
	.def	_a_make_EA_reg_reg;	.scl	2;	.type	32;	.endef
_a_make_EA_reg_reg:
LFB20:
	.cfi_startproc
	pushl	%ebp
	.cfi_def_cfa_offset 8
	.cfi_offset 5, -8
	movl	%esp, %ebp
	.cfi_def_cfa_register 5
	subl	$40, %esp
	movl	12(%ebp), %eax
	movl	(%eax), %eax
	cmpl	$3, %eax
	jne	L174
	movl	16(%ebp), %eax
	movl	(%eax), %eax
	cmpl	$3, %eax
	jne	L174
	movl	12(%ebp), %eax
	movl	4(%eax), %eax
	cmpl	$4, %eax
	jne	L175
	movl	16(%ebp), %eax
	movl	4(%eax), %eax
	cmpl	$4, %eax
	jne	L175
	movl	$917, 4(%esp)
	movl	$5, (%esp)
	call	_a_error_message
	movl	$-1, %eax
	jmp	L176
L175:
	movl	16(%ebp), %eax
	movl	4(%eax), %eax
	cmpl	$4, %eax
	jne	L177
	movl	12(%ebp), %eax
	movl	4(%eax), %eax
	movl	%eax, -12(%ebp)
	movl	16(%ebp), %eax
	movl	4(%eax), %edx
	movl	12(%ebp), %eax
	movl	%edx, 4(%eax)
	movl	16(%ebp), %eax
	movl	-12(%ebp), %edx
	movl	%edx, 4(%eax)
L177:
	movl	12(%ebp), %eax
	movl	4(%eax), %eax
	cmpl	$5, %eax
	jne	L178
	movl	16(%ebp), %eax
	movl	4(%eax), %eax
	cmpl	$4, %eax
	jne	L179
	movl	8(%ebp), %eax
	movl	$23, (%eax)
	movl	8(%ebp), %eax
	movb	$4, 12(%eax)
	movl	8(%ebp), %eax
	movb	$44, 13(%eax)
	jmp	L181
L179:
	movl	8(%ebp), %eax
	movl	$24, (%eax)
	movl	8(%ebp), %eax
	movb	$68, 12(%eax)
	movl	16(%ebp), %eax
	movl	4(%eax), %eax
	sall	$3, %eax
	leal	5(%eax), %edx
	movl	8(%ebp), %eax
	movb	%dl, 13(%eax)
	movl	8(%ebp), %eax
	movl	$0, 8(%eax)
	jmp	L181
L178:
	movl	8(%ebp), %eax
	movl	$23, (%eax)
	movl	8(%ebp), %eax
	movb	$4, 12(%eax)
	movl	12(%ebp), %eax
	movl	4(%eax), %eax
	movl	%eax, %edx
	movl	16(%ebp), %eax
	movl	4(%eax), %eax
	sall	$3, %eax
	addl	%eax, %edx
	movl	8(%ebp), %eax
	movb	%dl, 13(%eax)
	jmp	L181
L174:
	movl	$945, 4(%esp)
	movl	$5, (%esp)
	call	_a_error_message
	movl	$-1, %eax
	jmp	L176
L181:
	movl	$0, %eax
L176:
	leave
	.cfi_restore 5
	.cfi_def_cfa 4, 4
	ret
	.cfi_endproc
LFE20:
	.globl	_a_make_EA_reg_reg_disp
	.def	_a_make_EA_reg_reg_disp;	.scl	2;	.type	32;	.endef
_a_make_EA_reg_reg_disp:
LFB21:
	.cfi_startproc
	pushl	%ebp
	.cfi_def_cfa_offset 8
	.cfi_offset 5, -8
	movl	%esp, %ebp
	.cfi_def_cfa_register 5
	subl	$40, %esp
	movl	12(%ebp), %eax
	movl	(%eax), %eax
	cmpl	$3, %eax
	jne	L183
	movl	16(%ebp), %eax
	movl	(%eax), %eax
	cmpl	$3, %eax
	jne	L183
	movl	12(%ebp), %eax
	movl	4(%eax), %eax
	cmpl	$4, %eax
	jne	L184
	movl	16(%ebp), %eax
	movl	4(%eax), %eax
	cmpl	$4, %eax
	jne	L184
	movl	$957, 4(%esp)
	movl	$5, (%esp)
	call	_a_error_message
	movl	$-1, %eax
	jmp	L185
L184:
	movl	16(%ebp), %eax
	movl	4(%eax), %eax
	cmpl	$4, %eax
	jne	L186
	movl	12(%ebp), %eax
	movl	4(%eax), %eax
	movl	%eax, -12(%ebp)
	movl	16(%ebp), %eax
	movl	4(%eax), %edx
	movl	12(%ebp), %eax
	movl	%edx, 4(%eax)
	movl	16(%ebp), %eax
	movl	-12(%ebp), %edx
	movl	%edx, 4(%eax)
L186:
	movl	20(%ebp), %eax
	movl	(%eax), %eax
	cmpl	$11, %eax
	jne	L187
	movl	20(%ebp), %eax
	movl	$12, (%eax)
L187:
	movl	20(%ebp), %eax
	movl	(%eax), %eax
	cmpl	$10, %eax
	jne	L188
	movl	8(%ebp), %eax
	movl	$24, (%eax)
	movl	8(%ebp), %eax
	movb	$68, 12(%eax)
	movl	12(%ebp), %eax
	movl	4(%eax), %eax
	movl	%eax, %edx
	movl	16(%ebp), %eax
	movl	4(%eax), %eax
	sall	$3, %eax
	addl	%eax, %edx
	movl	8(%ebp), %eax
	movb	%dl, 13(%eax)
	movl	20(%ebp), %eax
	movl	8(%eax), %edx
	movl	8(%ebp), %eax
	movl	%edx, 8(%eax)
	jmp	L191
L188:
	movl	20(%ebp), %eax
	movl	(%eax), %eax
	cmpl	$12, %eax
	jne	L190
	movl	8(%ebp), %eax
	movl	$25, (%eax)
	movl	8(%ebp), %eax
	movb	$-124, 12(%eax)
	movl	12(%ebp), %eax
	movl	4(%eax), %eax
	movl	%eax, %edx
	movl	16(%ebp), %eax
	movl	4(%eax), %eax
	sall	$3, %eax
	addl	%eax, %edx
	movl	8(%ebp), %eax
	movb	%dl, 13(%eax)
	movl	20(%ebp), %eax
	movl	8(%eax), %edx
	movl	8(%ebp), %eax
	movl	%edx, 8(%eax)
	jmp	L191
L190:
	movl	$981, 4(%esp)
	movl	$5, (%esp)
	call	_a_error_message
	movl	$-1, %eax
	jmp	L185
L183:
	movl	$986, 4(%esp)
	movl	$5, (%esp)
	call	_a_error_message
	movl	$-1, %eax
	jmp	L185
L191:
	movl	$0, %eax
L185:
	leave
	.cfi_restore 5
	.cfi_def_cfa 4, 4
	ret
	.cfi_endproc
LFE21:
	.globl	_a_make_EA
	.def	_a_make_EA;	.scl	2;	.type	32;	.endef
_a_make_EA:
LFB22:
	.cfi_startproc
	pushl	%ebp
	.cfi_def_cfa_offset 8
	.cfi_offset 5, -8
	movl	%esp, %ebp
	.cfi_def_cfa_register 5
	subl	$24, %esp
	movl	$16, 8(%esp)
	movl	$0, 4(%esp)
	movl	8(%ebp), %eax
	movl	%eax, (%esp)
	call	_memset
	movl	12(%ebp), %eax
	movl	(%eax), %eax
	cmpl	$9, %eax
	jle	L193
	movl	12(%ebp), %eax
	movl	(%eax), %eax
	cmpl	$12, %eax
	jg	L193
	movl	8(%ebp), %eax
	movl	$22, (%eax)
	movl	8(%ebp), %eax
	movb	$5, 12(%eax)
	movl	12(%ebp), %eax
	movl	8(%eax), %edx
	movl	8(%ebp), %eax
	movl	%edx, 8(%eax)
	jmp	L194
L193:
	movl	12(%ebp), %eax
	movl	(%eax), %eax
	testl	%eax, %eax
	jle	L195
	movl	12(%ebp), %eax
	movl	(%eax), %eax
	cmpl	$3, %eax
	jg	L195
	movl	16(%ebp), %eax
	movl	(%eax), %eax
	testl	%eax, %eax
	jne	L196
	movl	12(%ebp), %eax
	movl	%eax, 4(%esp)
	movl	8(%ebp), %eax
	movl	%eax, (%esp)
	call	_a_make_EA_reg
	testl	%eax, %eax
	je	L206
	movl	$-1, %eax
	jmp	L198
L196:
	movl	16(%ebp), %eax
	movl	(%eax), %eax
	cmpl	$9, %eax
	jle	L199
	movl	16(%ebp), %eax
	movl	(%eax), %eax
	cmpl	$12, %eax
	jg	L199
	movl	16(%ebp), %eax
	movl	%eax, 8(%esp)
	movl	12(%ebp), %eax
	movl	%eax, 4(%esp)
	movl	8(%ebp), %eax
	movl	%eax, (%esp)
	call	_a_make_EA_reg_disp
	testl	%eax, %eax
	je	L197
	movl	$-1, %eax
	jmp	L198
L199:
	movl	16(%ebp), %eax
	movl	(%eax), %eax
	testl	%eax, %eax
	jle	L201
	movl	16(%ebp), %eax
	movl	(%eax), %eax
	cmpl	$3, %eax
	jg	L201
	movl	20(%ebp), %eax
	movl	(%eax), %eax
	testl	%eax, %eax
	jne	L202
	movl	16(%ebp), %eax
	movl	%eax, 8(%esp)
	movl	12(%ebp), %eax
	movl	%eax, 4(%esp)
	movl	8(%ebp), %eax
	movl	%eax, (%esp)
	call	_a_make_EA_reg_reg
	testl	%eax, %eax
	je	L207
	movl	$-1, %eax
	jmp	L198
L202:
	movl	20(%ebp), %eax
	movl	(%eax), %eax
	cmpl	$9, %eax
	jle	L204
	movl	20(%ebp), %eax
	movl	(%eax), %eax
	cmpl	$12, %eax
	jg	L204
	movl	20(%ebp), %eax
	movl	%eax, 12(%esp)
	movl	16(%ebp), %eax
	movl	%eax, 8(%esp)
	movl	12(%ebp), %eax
	movl	%eax, 4(%esp)
	movl	8(%ebp), %eax
	movl	%eax, (%esp)
	call	_a_make_EA_reg_reg_disp
	testl	%eax, %eax
	je	L203
	movl	$-1, %eax
	jmp	L198
L204:
	movl	$1023, 4(%esp)
	movl	$5, (%esp)
	call	_a_error_message
	movl	$-1, %eax
	jmp	L198
L203:
	jmp	L207
L201:
	movl	$1028, 4(%esp)
	movl	$5, (%esp)
	call	_a_error_message
	movl	$-1, %eax
	jmp	L198
L207:
	nop
L197:
	jmp	L206
L195:
	movl	$1033, 4(%esp)
	movl	$5, (%esp)
	call	_a_error_message
	movl	$-1, %eax
	jmp	L198
L206:
	nop
L194:
	movl	$0, %eax
L198:
	leave
	.cfi_restore 5
	.cfi_def_cfa 4, 4
	ret
	.cfi_endproc
LFE22:
	.globl	_a_get1operand
	.def	_a_get1operand;	.scl	2;	.type	32;	.endef
_a_get1operand:
LFB23:
	.cfi_startproc
	pushl	%ebp
	.cfi_def_cfa_offset 8
	.cfi_offset 5, -8
	movl	%esp, %ebp
	.cfi_def_cfa_register 5
	subl	$72, %esp
	call	_a_spskip
	movl	_a_linebufp, %eax
	movzbl	(%eax), %eax
	cmpb	$91, %al
	jne	L209
	leal	-56(%ebp), %eax
	movl	%eax, 8(%esp)
	leal	-40(%ebp), %eax
	movl	%eax, 4(%esp)
	leal	-24(%ebp), %eax
	movl	%eax, (%esp)
	call	_a_get_EA_operand
	testl	%eax, %eax
	je	L210
	movl	$-1, %eax
	jmp	L213
L210:
	leal	-56(%ebp), %eax
	movl	%eax, 12(%esp)
	leal	-40(%ebp), %eax
	movl	%eax, 8(%esp)
	leal	-24(%ebp), %eax
	movl	%eax, 4(%esp)
	movl	8(%ebp), %eax
	movl	%eax, (%esp)
	call	_a_make_EA
	jmp	L213
L209:
	movl	8(%ebp), %eax
	movl	%eax, (%esp)
	call	_a_get_regoperand
	testl	%eax, %eax
	je	L212
	movl	$0, %eax
	jmp	L213
L212:
	movl	8(%ebp), %eax
	movl	%eax, (%esp)
	call	_a_get_const_operand
L213:
	leave
	.cfi_restore 5
	.cfi_def_cfa 4, 4
	ret
	.cfi_endproc
LFE23:
	.globl	_a_op_TYPE1
	.def	_a_op_TYPE1;	.scl	2;	.type	32;	.endef
_a_op_TYPE1:
LFB24:
	.cfi_startproc
	pushl	%ebp
	.cfi_def_cfa_offset 8
	.cfi_offset 5, -8
	movl	%esp, %ebp
	.cfi_def_cfa_register 5
	movl	8(%ebp), %eax
	movb	%al, _a_inst
	movl	$1, _a_inst_ptr
	call	_a_objout
	nop
	popl	%ebp
	.cfi_restore 5
	.cfi_def_cfa 4, 4
	ret
	.cfi_endproc
LFE24:
	.globl	_a_op_TYPE2
	.def	_a_op_TYPE2;	.scl	2;	.type	32;	.endef
_a_op_TYPE2:
LFB25:
	.cfi_startproc
	pushl	%ebp
	.cfi_def_cfa_offset 8
	.cfi_offset 5, -8
	movl	%esp, %ebp
	.cfi_def_cfa_register 5
	movl	$_a_inst, %edx
	movl	8(%ebp), %eax
	movw	%ax, (%edx)
	movl	$2, _a_inst_ptr
	call	_a_objout
	nop
	popl	%ebp
	.cfi_restore 5
	.cfi_def_cfa 4, 4
	ret
	.cfi_endproc
LFE25:
	.globl	_a_op_TYPE3_a
	.def	_a_op_TYPE3_a;	.scl	2;	.type	32;	.endef
_a_op_TYPE3_a:
LFB26:
	.cfi_startproc
	pushl	%ebp
	.cfi_def_cfa_offset 8
	.cfi_offset 5, -8
	movl	%esp, %ebp
	.cfi_def_cfa_register 5
	movl	12(%ebp), %eax
	movl	(%eax), %eax
	cmpl	$1, %eax
	jne	L217
	movl	8(%ebp), %eax
	sarl	$8, %eax
	movb	%al, _a_inst
	movl	16(%ebp), %eax
	movl	8(%eax), %eax
	movb	%al, _a_inst+1
	movl	$2, _a_inst_ptr
	jmp	L221
L217:
	movl	12(%ebp), %eax
	movl	(%eax), %eax
	cmpl	$2, %eax
	jne	L219
	movb	$102, _a_inst
	movl	8(%ebp), %eax
	sarl	$8, %eax
	orl	$1, %eax
	movb	%al, _a_inst+1
	movl	16(%ebp), %eax
	movl	8(%eax), %eax
	movl	$_a_inst+2, %edx
	movw	%ax, (%edx)
	movl	$4, _a_inst_ptr
	jmp	L221
L219:
	movl	12(%ebp), %eax
	movl	(%eax), %eax
	cmpl	$3, %eax
	jne	L221
	movl	16(%ebp), %eax
	movl	(%eax), %eax
	cmpl	$10, %eax
	jne	L220
	movl	8(%ebp), %eax
	sarl	$16, %eax
	orl	$3, %eax
	movb	%al, _a_inst
	movl	8(%ebp), %eax
	sarl	$24, %eax
	orl	$-64, %eax
	movb	%al, _a_inst+1
	movl	16(%ebp), %eax
	movl	8(%eax), %eax
	movb	%al, _a_inst+2
	movl	$3, _a_inst_ptr
	jmp	L221
L220:
	movl	8(%ebp), %eax
	sarl	$8, %eax
	orl	$1, %eax
	movb	%al, _a_inst
	movl	$_a_inst+1, %edx
	movl	16(%ebp), %eax
	movl	8(%eax), %eax
	movl	%eax, (%edx)
	movl	$5, _a_inst_ptr
L221:
	nop
	popl	%ebp
	.cfi_restore 5
	.cfi_def_cfa 4, 4
	ret
	.cfi_endproc
LFE26:
	.globl	_a_op_TYPE3_b
	.def	_a_op_TYPE3_b;	.scl	2;	.type	32;	.endef
_a_op_TYPE3_b:
LFB27:
	.cfi_startproc
	pushl	%ebp
	.cfi_def_cfa_offset 8
	.cfi_offset 5, -8
	movl	%esp, %ebp
	.cfi_def_cfa_register 5
	subl	$24, %esp
	movl	12(%ebp), %eax
	movl	(%eax), %eax
	cmpl	$1, %eax
	jne	L223
	movl	16(%ebp), %eax
	movl	(%eax), %eax
	cmpl	$1, %eax
	jne	L223
	movl	8(%ebp), %eax
	movb	%al, _a_inst
	movl	12(%ebp), %eax
	movl	4(%eax), %eax
	movl	%eax, %edx
	movl	16(%ebp), %eax
	movl	4(%eax), %eax
	sall	$3, %eax
	addl	%edx, %eax
	subl	$64, %eax
	movb	%al, _a_inst+1
	movl	$2, _a_inst_ptr
	jmp	L224
L223:
	movl	12(%ebp), %eax
	movl	(%eax), %eax
	cmpl	$2, %eax
	jne	L225
	movl	16(%ebp), %eax
	movl	(%eax), %eax
	cmpl	$2, %eax
	jne	L225
	movb	$102, _a_inst
	movl	8(%ebp), %eax
	orl	$1, %eax
	movb	%al, _a_inst+1
	movl	12(%ebp), %eax
	movl	4(%eax), %eax
	movl	%eax, %edx
	movl	16(%ebp), %eax
	movl	4(%eax), %eax
	sall	$3, %eax
	addl	%edx, %eax
	subl	$64, %eax
	movb	%al, _a_inst+2
	movl	$3, _a_inst_ptr
	jmp	L224
L225:
	movl	12(%ebp), %eax
	movl	(%eax), %eax
	cmpl	$3, %eax
	jne	L226
	movl	16(%ebp), %eax
	movl	(%eax), %eax
	cmpl	$3, %eax
	jne	L226
	movl	8(%ebp), %eax
	orl	$1, %eax
	movb	%al, _a_inst
	movl	12(%ebp), %eax
	movl	4(%eax), %eax
	movl	%eax, %edx
	movl	16(%ebp), %eax
	movl	4(%eax), %eax
	sall	$3, %eax
	addl	%edx, %eax
	subl	$64, %eax
	movb	%al, _a_inst+1
	movl	$2, _a_inst_ptr
	jmp	L224
L226:
	movl	$1123, 4(%esp)
	movl	$5, (%esp)
	call	_a_error_message
	movl	$-1, %eax
	jmp	L227
L224:
	movl	$0, %eax
L227:
	leave
	.cfi_restore 5
	.cfi_def_cfa 4, 4
	ret
	.cfi_endproc
LFE27:
	.globl	_a_op_TYPE3_c_sub
	.def	_a_op_TYPE3_c_sub;	.scl	2;	.type	32;	.endef
_a_op_TYPE3_c_sub:
LFB28:
	.cfi_startproc
	pushl	%ebp
	.cfi_def_cfa_offset 8
	.cfi_offset 5, -8
	movl	%esp, %ebp
	.cfi_def_cfa_register 5
	subl	$24, %esp
	movl	16(%ebp), %eax
	movl	(%eax), %eax
	subl	$20, %eax
	cmpl	$5, %eax
	ja	L229
	movl	L231(,%eax,4), %eax
	jmp	*%eax
	.data
	.align 4
L231:
	.long	L236
	.long	L235
	.long	L234
	.long	L233
	.long	L232
	.long	L230
	.text
L236:
	movl	8(%ebp), %eax
	movl	%eax, %edx
	movl	20(%ebp), %eax
	orl	%edx, %eax
	movl	%eax, %edx
	movl	24(%ebp), %eax
	addl	$_a_inst, %eax
	movb	%dl, (%eax)
	movl	16(%ebp), %eax
	movzbl	12(%eax), %eax
	movl	%eax, %edx
	movl	12(%ebp), %eax
	movl	4(%eax), %eax
	sall	$3, %eax
	orl	%eax, %edx
	movl	24(%ebp), %eax
	addl	$1, %eax
	movb	%dl, _a_inst(%eax)
	movl	24(%ebp), %eax
	addl	$2, %eax
	movl	%eax, _a_inst_ptr
	jmp	L237
L235:
	movl	8(%ebp), %eax
	movl	%eax, %edx
	movl	20(%ebp), %eax
	orl	%edx, %eax
	movl	%eax, %edx
	movl	24(%ebp), %eax
	addl	$_a_inst, %eax
	movb	%dl, (%eax)
	movl	16(%ebp), %eax
	movzbl	12(%eax), %eax
	movl	%eax, %edx
	movl	12(%ebp), %eax
	movl	4(%eax), %eax
	sall	$3, %eax
	orl	%eax, %edx
	movl	24(%ebp), %eax
	addl	$1, %eax
	movb	%dl, _a_inst(%eax)
	movl	16(%ebp), %eax
	movl	8(%eax), %edx
	movl	24(%ebp), %eax
	addl	$2, %eax
	movb	%dl, _a_inst(%eax)
	movl	24(%ebp), %eax
	addl	$3, %eax
	movl	%eax, _a_inst_ptr
	jmp	L237
L234:
	movl	8(%ebp), %eax
	movl	%eax, %edx
	movl	20(%ebp), %eax
	orl	%edx, %eax
	movl	%eax, %edx
	movl	24(%ebp), %eax
	addl	$_a_inst, %eax
	movb	%dl, (%eax)
	movl	16(%ebp), %eax
	movzbl	12(%eax), %eax
	movl	%eax, %edx
	movl	12(%ebp), %eax
	movl	4(%eax), %eax
	sall	$3, %eax
	orl	%eax, %edx
	movl	24(%ebp), %eax
	addl	$1, %eax
	movb	%dl, _a_inst(%eax)
	movl	24(%ebp), %eax
	addl	$2, %eax
	leal	_a_inst(%eax), %edx
	movl	16(%ebp), %eax
	movl	8(%eax), %eax
	movl	%eax, (%edx)
	movl	24(%ebp), %eax
	addl	$6, %eax
	movl	%eax, _a_inst_ptr
	jmp	L237
L233:
	movl	8(%ebp), %eax
	movl	%eax, %edx
	movl	20(%ebp), %eax
	orl	%edx, %eax
	movl	%eax, %edx
	movl	24(%ebp), %eax
	addl	$_a_inst, %eax
	movb	%dl, (%eax)
	movl	16(%ebp), %eax
	movzbl	12(%eax), %eax
	movl	%eax, %edx
	movl	12(%ebp), %eax
	movl	4(%eax), %eax
	sall	$3, %eax
	orl	%eax, %edx
	movl	24(%ebp), %eax
	addl	$1, %eax
	movb	%dl, _a_inst(%eax)
	movl	24(%ebp), %eax
	leal	2(%eax), %edx
	movl	16(%ebp), %eax
	movzbl	13(%eax), %eax
	movb	%al, _a_inst(%edx)
	movl	24(%ebp), %eax
	addl	$3, %eax
	movl	%eax, _a_inst_ptr
	jmp	L237
L232:
	movl	8(%ebp), %eax
	movl	%eax, %edx
	movl	20(%ebp), %eax
	orl	%edx, %eax
	movl	%eax, %edx
	movl	24(%ebp), %eax
	addl	$_a_inst, %eax
	movb	%dl, (%eax)
	movl	16(%ebp), %eax
	movzbl	12(%eax), %eax
	movl	%eax, %edx
	movl	12(%ebp), %eax
	movl	4(%eax), %eax
	sall	$3, %eax
	orl	%eax, %edx
	movl	24(%ebp), %eax
	addl	$1, %eax
	movb	%dl, _a_inst(%eax)
	movl	24(%ebp), %eax
	leal	2(%eax), %edx
	movl	16(%ebp), %eax
	movzbl	13(%eax), %eax
	movb	%al, _a_inst(%edx)
	movl	16(%ebp), %eax
	movl	8(%eax), %edx
	movl	24(%ebp), %eax
	addl	$3, %eax
	movb	%dl, _a_inst(%eax)
	movl	24(%ebp), %eax
	addl	$4, %eax
	movl	%eax, _a_inst_ptr
	jmp	L237
L230:
	movl	8(%ebp), %eax
	movl	%eax, %edx
	movl	20(%ebp), %eax
	orl	%edx, %eax
	movl	%eax, %edx
	movl	24(%ebp), %eax
	addl	$_a_inst, %eax
	movb	%dl, (%eax)
	movl	16(%ebp), %eax
	movzbl	12(%eax), %eax
	movl	%eax, %edx
	movl	12(%ebp), %eax
	movl	4(%eax), %eax
	sall	$3, %eax
	orl	%eax, %edx
	movl	24(%ebp), %eax
	addl	$1, %eax
	movb	%dl, _a_inst(%eax)
	movl	24(%ebp), %eax
	leal	2(%eax), %edx
	movl	16(%ebp), %eax
	movzbl	13(%eax), %eax
	movb	%al, _a_inst(%edx)
	movl	24(%ebp), %eax
	addl	$3, %eax
	leal	_a_inst(%eax), %edx
	movl	16(%ebp), %eax
	movl	8(%eax), %eax
	movl	%eax, (%edx)
	movl	24(%ebp), %eax
	addl	$7, %eax
	movl	%eax, _a_inst_ptr
	jmp	L237
L229:
	movl	$1170, 4(%esp)
	movl	$5, (%esp)
	call	_a_error_message
	movl	$-1, %eax
	jmp	L238
L237:
	movl	$0, %eax
L238:
	leave
	.cfi_restore 5
	.cfi_def_cfa 4, 4
	ret
	.cfi_endproc
LFE28:
	.globl	_a_op_TYPE3_c
	.def	_a_op_TYPE3_c;	.scl	2;	.type	32;	.endef
_a_op_TYPE3_c:
LFB29:
	.cfi_startproc
	pushl	%ebp
	.cfi_def_cfa_offset 8
	.cfi_offset 5, -8
	movl	%esp, %ebp
	.cfi_def_cfa_register 5
	subl	$40, %esp
	movl	12(%ebp), %eax
	movl	(%eax), %eax
	cmpl	$1, %eax
	jne	L240
	movl	$0, 16(%esp)
	movl	$2, 12(%esp)
	movl	16(%ebp), %eax
	movl	%eax, 8(%esp)
	movl	12(%ebp), %eax
	movl	%eax, 4(%esp)
	movl	8(%ebp), %eax
	movl	%eax, (%esp)
	call	_a_op_TYPE3_c_sub
	testl	%eax, %eax
	je	L241
	movl	$-1, %eax
	jmp	L242
L240:
	movl	12(%ebp), %eax
	movl	(%eax), %eax
	cmpl	$2, %eax
	jne	L243
	movb	$102, _a_inst
	movl	$1, 16(%esp)
	movl	$3, 12(%esp)
	movl	16(%ebp), %eax
	movl	%eax, 8(%esp)
	movl	12(%ebp), %eax
	movl	%eax, 4(%esp)
	movl	8(%ebp), %eax
	movl	%eax, (%esp)
	call	_a_op_TYPE3_c_sub
	testl	%eax, %eax
	je	L241
	movl	$-1, %eax
	jmp	L242
L243:
	movl	12(%ebp), %eax
	movl	(%eax), %eax
	cmpl	$3, %eax
	jne	L244
	movl	$0, 16(%esp)
	movl	$3, 12(%esp)
	movl	16(%ebp), %eax
	movl	%eax, 8(%esp)
	movl	12(%ebp), %eax
	movl	%eax, 4(%esp)
	movl	8(%ebp), %eax
	movl	%eax, (%esp)
	call	_a_op_TYPE3_c_sub
	testl	%eax, %eax
	je	L241
	movl	$-1, %eax
	jmp	L242
L244:
	movl	$1196, 4(%esp)
	movl	$5, (%esp)
	call	_a_error_message
	movl	$-1, %eax
	jmp	L242
L241:
	movl	$0, %eax
L242:
	leave
	.cfi_restore 5
	.cfi_def_cfa 4, 4
	ret
	.cfi_endproc
LFE29:
	.globl	_a_op_TYPE3_d
	.def	_a_op_TYPE3_d;	.scl	2;	.type	32;	.endef
_a_op_TYPE3_d:
LFB30:
	.cfi_startproc
	pushl	%ebp
	.cfi_def_cfa_offset 8
	.cfi_offset 5, -8
	movl	%esp, %ebp
	.cfi_def_cfa_register 5
	subl	$40, %esp
	movl	16(%ebp), %eax
	movl	(%eax), %eax
	cmpl	$1, %eax
	jne	L246
	movl	$0, 16(%esp)
	movl	$0, 12(%esp)
	movl	12(%ebp), %eax
	movl	%eax, 8(%esp)
	movl	16(%ebp), %eax
	movl	%eax, 4(%esp)
	movl	8(%ebp), %eax
	movl	%eax, (%esp)
	call	_a_op_TYPE3_c_sub
	testl	%eax, %eax
	je	L247
	movl	$-1, %eax
	jmp	L248
L246:
	movl	16(%ebp), %eax
	movl	(%eax), %eax
	cmpl	$2, %eax
	jne	L249
	movb	$102, _a_inst
	movl	$1, 16(%esp)
	movl	$1, 12(%esp)
	movl	12(%ebp), %eax
	movl	%eax, 8(%esp)
	movl	16(%ebp), %eax
	movl	%eax, 4(%esp)
	movl	8(%ebp), %eax
	movl	%eax, (%esp)
	call	_a_op_TYPE3_c_sub
	testl	%eax, %eax
	je	L247
	movl	$-1, %eax
	jmp	L248
L249:
	movl	16(%ebp), %eax
	movl	(%eax), %eax
	cmpl	$3, %eax
	jne	L250
	movl	$0, 16(%esp)
	movl	$1, 12(%esp)
	movl	12(%ebp), %eax
	movl	%eax, 8(%esp)
	movl	16(%ebp), %eax
	movl	%eax, 4(%esp)
	movl	8(%ebp), %eax
	movl	%eax, (%esp)
	call	_a_op_TYPE3_c_sub
	testl	%eax, %eax
	je	L247
	movl	$-1, %eax
	jmp	L248
L250:
	movl	$1222, 4(%esp)
	movl	$5, (%esp)
	call	_a_error_message
	movl	$-1, %eax
	jmp	L248
L247:
	movl	$0, %eax
L248:
	leave
	.cfi_restore 5
	.cfi_def_cfa 4, 4
	ret
	.cfi_endproc
LFE30:
	.globl	_a_op_TYPE3_e_sub
	.def	_a_op_TYPE3_e_sub;	.scl	2;	.type	32;	.endef
_a_op_TYPE3_e_sub:
LFB31:
	.cfi_startproc
	pushl	%ebp
	.cfi_def_cfa_offset 8
	.cfi_offset 5, -8
	movl	%esp, %ebp
	.cfi_def_cfa_register 5
	subl	$24, %esp
	movl	12(%ebp), %eax
	movl	(%eax), %eax
	subl	$20, %eax
	cmpl	$5, %eax
	ja	L252
	movl	L254(,%eax,4), %eax
	jmp	*%eax
	.data
	.align 4
L254:
	.long	L259
	.long	L258
	.long	L257
	.long	L256
	.long	L255
	.long	L253
	.text
L259:
	movl	8(%ebp), %eax
	sarl	$16, %eax
	movl	%eax, %edx
	movl	20(%ebp), %eax
	orl	%edx, %eax
	movl	%eax, %edx
	movl	24(%ebp), %eax
	addl	$_a_inst, %eax
	movb	%dl, (%eax)
	movl	12(%ebp), %eax
	movzbl	12(%eax), %eax
	movl	%eax, %edx
	movl	8(%ebp), %eax
	sarl	$24, %eax
	orl	%eax, %edx
	movl	24(%ebp), %eax
	addl	$1, %eax
	movb	%dl, _a_inst(%eax)
	movl	24(%ebp), %eax
	addl	$2, %eax
	movl	%eax, _a_inst_ptr
	jmp	L260
L258:
	movl	8(%ebp), %eax
	sarl	$16, %eax
	movl	%eax, %edx
	movl	20(%ebp), %eax
	orl	%edx, %eax
	movl	%eax, %edx
	movl	24(%ebp), %eax
	addl	$_a_inst, %eax
	movb	%dl, (%eax)
	movl	12(%ebp), %eax
	movzbl	12(%eax), %eax
	movl	%eax, %edx
	movl	8(%ebp), %eax
	sarl	$24, %eax
	orl	%eax, %edx
	movl	24(%ebp), %eax
	addl	$1, %eax
	movb	%dl, _a_inst(%eax)
	movl	12(%ebp), %eax
	movl	8(%eax), %edx
	movl	24(%ebp), %eax
	addl	$2, %eax
	movb	%dl, _a_inst(%eax)
	movl	24(%ebp), %eax
	addl	$3, %eax
	movl	%eax, _a_inst_ptr
	jmp	L260
L257:
	movl	8(%ebp), %eax
	sarl	$16, %eax
	movl	%eax, %edx
	movl	20(%ebp), %eax
	orl	%edx, %eax
	movl	%eax, %edx
	movl	24(%ebp), %eax
	addl	$_a_inst, %eax
	movb	%dl, (%eax)
	movl	12(%ebp), %eax
	movzbl	12(%eax), %eax
	movl	%eax, %edx
	movl	8(%ebp), %eax
	sarl	$24, %eax
	orl	%eax, %edx
	movl	24(%ebp), %eax
	addl	$1, %eax
	movb	%dl, _a_inst(%eax)
	movl	24(%ebp), %eax
	addl	$2, %eax
	leal	_a_inst(%eax), %edx
	movl	12(%ebp), %eax
	movl	8(%eax), %eax
	movl	%eax, (%edx)
	movl	24(%ebp), %eax
	addl	$6, %eax
	movl	%eax, _a_inst_ptr
	jmp	L260
L256:
	movl	8(%ebp), %eax
	sarl	$16, %eax
	movl	%eax, %edx
	movl	20(%ebp), %eax
	orl	%edx, %eax
	movl	%eax, %edx
	movl	24(%ebp), %eax
	addl	$_a_inst, %eax
	movb	%dl, (%eax)
	movl	12(%ebp), %eax
	movzbl	12(%eax), %eax
	movl	%eax, %edx
	movl	8(%ebp), %eax
	sarl	$24, %eax
	orl	%eax, %edx
	movl	24(%ebp), %eax
	addl	$1, %eax
	movb	%dl, _a_inst(%eax)
	movl	24(%ebp), %eax
	leal	2(%eax), %edx
	movl	12(%ebp), %eax
	movzbl	13(%eax), %eax
	movb	%al, _a_inst(%edx)
	movl	24(%ebp), %eax
	addl	$3, %eax
	movl	%eax, _a_inst_ptr
	jmp	L260
L255:
	movl	8(%ebp), %eax
	sarl	$16, %eax
	movl	%eax, %edx
	movl	20(%ebp), %eax
	orl	%edx, %eax
	movl	%eax, %edx
	movl	24(%ebp), %eax
	addl	$_a_inst, %eax
	movb	%dl, (%eax)
	movl	12(%ebp), %eax
	movzbl	12(%eax), %eax
	movl	%eax, %edx
	movl	8(%ebp), %eax
	sarl	$24, %eax
	orl	%eax, %edx
	movl	24(%ebp), %eax
	addl	$1, %eax
	movb	%dl, _a_inst(%eax)
	movl	24(%ebp), %eax
	leal	2(%eax), %edx
	movl	12(%ebp), %eax
	movzbl	13(%eax), %eax
	movb	%al, _a_inst(%edx)
	movl	12(%ebp), %eax
	movl	8(%eax), %edx
	movl	24(%ebp), %eax
	addl	$3, %eax
	movb	%dl, _a_inst(%eax)
	movl	24(%ebp), %eax
	addl	$4, %eax
	movl	%eax, _a_inst_ptr
	jmp	L260
L253:
	movl	8(%ebp), %eax
	sarl	$16, %eax
	movl	%eax, %edx
	movl	20(%ebp), %eax
	orl	%edx, %eax
	movl	%eax, %edx
	movl	24(%ebp), %eax
	addl	$_a_inst, %eax
	movb	%dl, (%eax)
	movl	12(%ebp), %eax
	movzbl	12(%eax), %eax
	movl	%eax, %edx
	movl	8(%ebp), %eax
	sarl	$24, %eax
	orl	%eax, %edx
	movl	24(%ebp), %eax
	addl	$1, %eax
	movb	%dl, _a_inst(%eax)
	movl	24(%ebp), %eax
	leal	2(%eax), %edx
	movl	12(%ebp), %eax
	movzbl	13(%eax), %eax
	movb	%al, _a_inst(%edx)
	movl	24(%ebp), %eax
	addl	$3, %eax
	leal	_a_inst(%eax), %edx
	movl	12(%ebp), %eax
	movl	8(%eax), %eax
	movl	%eax, (%edx)
	movl	24(%ebp), %eax
	addl	$7, %eax
	movl	%eax, _a_inst_ptr
	jmp	L260
L252:
	movl	$1269, 4(%esp)
	movl	$5, (%esp)
	call	_a_error_message
	movl	$-1, %eax
	jmp	L261
L260:
	movl	16(%ebp), %eax
	movl	(%eax), %eax
	cmpl	$10, %eax
	jne	L262
	movl	16(%ebp), %eax
	movl	8(%eax), %edx
	movl	_a_inst_ptr, %eax
	movb	%dl, _a_inst(%eax)
	movl	_a_inst_ptr, %eax
	addl	$1, %eax
	movl	%eax, _a_inst_ptr
	jmp	L263
L262:
	movl	16(%ebp), %eax
	movl	(%eax), %eax
	cmpl	$11, %eax
	jne	L264
	movl	16(%ebp), %eax
	movl	8(%eax), %edx
	movl	_a_inst_ptr, %eax
	addl	$_a_inst, %eax
	movw	%dx, (%eax)
	movl	_a_inst_ptr, %eax
	addl	$2, %eax
	movl	%eax, _a_inst_ptr
	jmp	L263
L264:
	movl	16(%ebp), %eax
	movl	(%eax), %eax
	cmpl	$12, %eax
	jne	L265
	movl	16(%ebp), %eax
	movl	8(%eax), %edx
	movl	_a_inst_ptr, %eax
	addl	$_a_inst, %eax
	movl	%edx, (%eax)
	movl	_a_inst_ptr, %eax
	addl	$4, %eax
	movl	%eax, _a_inst_ptr
	jmp	L263
L265:
	movl	$1285, 4(%esp)
	movl	$5, (%esp)
	call	_a_error_message
	movl	$-1, %eax
	jmp	L261
L263:
	movl	$0, %eax
L261:
	leave
	.cfi_restore 5
	.cfi_def_cfa 4, 4
	ret
	.cfi_endproc
LFE31:
	.globl	_a_op_TYPE3_e
	.def	_a_op_TYPE3_e;	.scl	2;	.type	32;	.endef
_a_op_TYPE3_e:
LFB32:
	.cfi_startproc
	pushl	%ebp
	.cfi_def_cfa_offset 8
	.cfi_offset 5, -8
	movl	%esp, %ebp
	.cfi_def_cfa_register 5
	subl	$40, %esp
	movl	16(%ebp), %eax
	movl	(%eax), %eax
	cmpl	$10, %eax
	jne	L267
	movl	$0, 16(%esp)
	movl	$0, 12(%esp)
	movl	16(%ebp), %eax
	movl	%eax, 8(%esp)
	movl	12(%ebp), %eax
	movl	%eax, 4(%esp)
	movl	8(%ebp), %eax
	movl	%eax, (%esp)
	call	_a_op_TYPE3_e_sub
	testl	%eax, %eax
	je	L268
	movl	$-1, %eax
	jmp	L269
L267:
	movl	16(%ebp), %eax
	movl	(%eax), %eax
	cmpl	$11, %eax
	jne	L270
	movb	$102, _a_inst
	movl	$1, 16(%esp)
	movl	$1, 12(%esp)
	movl	16(%ebp), %eax
	movl	%eax, 8(%esp)
	movl	12(%ebp), %eax
	movl	%eax, 4(%esp)
	movl	8(%ebp), %eax
	movl	%eax, (%esp)
	call	_a_op_TYPE3_e_sub
	testl	%eax, %eax
	je	L268
	movl	$-1, %eax
	jmp	L269
L270:
	movl	16(%ebp), %eax
	movl	(%eax), %eax
	cmpl	$12, %eax
	jne	L271
	movl	$0, 16(%esp)
	movl	$1, 12(%esp)
	movl	16(%ebp), %eax
	movl	%eax, 8(%esp)
	movl	12(%ebp), %eax
	movl	%eax, 4(%esp)
	movl	8(%ebp), %eax
	movl	%eax, (%esp)
	call	_a_op_TYPE3_e_sub
	testl	%eax, %eax
	je	L268
	movl	$-1, %eax
	jmp	L269
L271:
	movl	$1311, 4(%esp)
	movl	$5, (%esp)
	call	_a_error_message
	movl	$-1, %eax
	jmp	L269
L268:
	movl	$0, %eax
L269:
	leave
	.cfi_restore 5
	.cfi_def_cfa 4, 4
	ret
	.cfi_endproc
LFE32:
	.globl	_a_op_TYPE3_f
	.def	_a_op_TYPE3_f;	.scl	2;	.type	32;	.endef
_a_op_TYPE3_f:
LFB33:
	.cfi_startproc
	pushl	%ebp
	.cfi_def_cfa_offset 8
	.cfi_offset 5, -8
	movl	%esp, %ebp
	.cfi_def_cfa_register 5
	subl	$24, %esp
	movl	12(%ebp), %eax
	movl	(%eax), %eax
	cmpl	$1, %eax
	jne	L273
	movl	8(%ebp), %eax
	sarl	$16, %eax
	movb	%al, _a_inst
	movl	12(%ebp), %eax
	movl	4(%eax), %eax
	orl	$-64, %eax
	movl	%eax, %edx
	movl	8(%ebp), %eax
	sarl	$24, %eax
	orl	%edx, %eax
	movb	%al, _a_inst+1
	movl	16(%ebp), %eax
	movl	8(%eax), %eax
	movb	%al, _a_inst+2
	movl	$3, _a_inst_ptr
	jmp	L274
L273:
	movl	12(%ebp), %eax
	movl	(%eax), %eax
	cmpl	$2, %eax
	jne	L275
	movl	16(%ebp), %eax
	movl	(%eax), %eax
	cmpl	$10, %eax
	jne	L276
	movb	$102, _a_inst
	movl	8(%ebp), %eax
	sarl	$16, %eax
	orl	$3, %eax
	movb	%al, _a_inst+1
	movl	12(%ebp), %eax
	movl	4(%eax), %eax
	orl	$-64, %eax
	movl	%eax, %edx
	movl	8(%ebp), %eax
	sarl	$24, %eax
	orl	%edx, %eax
	movb	%al, _a_inst+2
	movl	16(%ebp), %eax
	movl	8(%eax), %eax
	movb	%al, _a_inst+3
	movl	$4, _a_inst_ptr
	jmp	L274
L276:
	movb	$102, _a_inst
	movl	8(%ebp), %eax
	sarl	$16, %eax
	orl	$1, %eax
	movb	%al, _a_inst+1
	movl	12(%ebp), %eax
	movl	4(%eax), %eax
	orl	$-64, %eax
	movl	%eax, %edx
	movl	8(%ebp), %eax
	sarl	$24, %eax
	orl	%edx, %eax
	movb	%al, _a_inst+2
	movl	16(%ebp), %eax
	movl	8(%eax), %eax
	movl	$_a_inst+3, %edx
	movw	%ax, (%edx)
	movl	$5, _a_inst_ptr
	jmp	L274
L275:
	movl	12(%ebp), %eax
	movl	(%eax), %eax
	cmpl	$3, %eax
	jne	L277
	movl	16(%ebp), %eax
	movl	(%eax), %eax
	cmpl	$10, %eax
	jne	L278
	movl	8(%ebp), %eax
	sarl	$16, %eax
	orl	$3, %eax
	movb	%al, _a_inst
	movl	12(%ebp), %eax
	movl	4(%eax), %eax
	orl	$-64, %eax
	movl	%eax, %edx
	movl	8(%ebp), %eax
	sarl	$24, %eax
	orl	%edx, %eax
	movb	%al, _a_inst+1
	movl	16(%ebp), %eax
	movl	8(%eax), %eax
	movb	%al, _a_inst+2
	movl	$3, _a_inst_ptr
	jmp	L274
L278:
	movl	8(%ebp), %eax
	sarl	$16, %eax
	orl	$1, %eax
	movb	%al, _a_inst
	movl	12(%ebp), %eax
	movl	4(%eax), %eax
	orl	$-64, %eax
	movl	%eax, %edx
	movl	8(%ebp), %eax
	sarl	$24, %eax
	orl	%edx, %eax
	movb	%al, _a_inst+1
	movl	16(%ebp), %eax
	movl	8(%eax), %eax
	movl	$_a_inst+2, %edx
	movl	%eax, (%edx)
	movl	$6, _a_inst_ptr
	jmp	L274
L277:
	movl	$1357, 4(%esp)
	movl	$5, (%esp)
	call	_a_error_message
	movl	$-1, %eax
	jmp	L279
L274:
	movl	$0, %eax
L279:
	leave
	.cfi_restore 5
	.cfi_def_cfa 4, 4
	ret
	.cfi_endproc
LFE33:
	.globl	_a_op_TYPE3
	.def	_a_op_TYPE3;	.scl	2;	.type	32;	.endef
_a_op_TYPE3:
LFB34:
	.cfi_startproc
	pushl	%ebp
	.cfi_def_cfa_offset 8
	.cfi_offset 5, -8
	movl	%esp, %ebp
	.cfi_def_cfa_register 5
	subl	$56, %esp
	leal	-24(%ebp), %eax
	movl	%eax, (%esp)
	call	_a_get1operand
	testl	%eax, %eax
	je	L281
	movl	$-1, %eax
	jmp	L297
L281:
	call	_a_spskip
	movl	_a_linebufp, %eax
	movzbl	(%eax), %eax
	cmpb	$44, %al
	je	L283
	movl	$1373, 4(%esp)
	movl	$5, (%esp)
	call	_a_error_message
	movl	$-1, %eax
	jmp	L297
L283:
	movl	_a_linebufp, %eax
	addl	$1, %eax
	movl	%eax, _a_linebufp
	leal	-40(%ebp), %eax
	movl	%eax, (%esp)
	call	_a_get1operand
	testl	%eax, %eax
	je	L284
	movl	$-1, %eax
	jmp	L297
L284:
	movl	-24(%ebp), %eax
	testl	%eax, %eax
	jle	L285
	movl	-24(%ebp), %eax
	cmpl	$3, %eax
	jg	L285
	movl	-20(%ebp), %eax
	testl	%eax, %eax
	jne	L285
	movl	-40(%ebp), %eax
	cmpl	$9, %eax
	jle	L285
	movl	-40(%ebp), %eax
	cmpl	$12, %eax
	jg	L285
	movl	8(%ebp), %eax
	leal	-40(%ebp), %edx
	movl	%edx, 8(%esp)
	leal	-24(%ebp), %edx
	movl	%edx, 4(%esp)
	movl	%eax, (%esp)
	call	_a_op_TYPE3_a
	jmp	L286
L285:
	movl	-24(%ebp), %eax
	testl	%eax, %eax
	jle	L287
	movl	-24(%ebp), %eax
	cmpl	$3, %eax
	jg	L287
	movl	-40(%ebp), %eax
	testl	%eax, %eax
	jle	L287
	movl	-40(%ebp), %eax
	cmpl	$3, %eax
	jg	L287
	movl	8(%ebp), %eax
	leal	-40(%ebp), %edx
	movl	%edx, 8(%esp)
	leal	-24(%ebp), %edx
	movl	%edx, 4(%esp)
	movl	%eax, (%esp)
	call	_a_op_TYPE3_b
	testl	%eax, %eax
	je	L286
	movl	$-1, %eax
	jmp	L297
L287:
	movl	-24(%ebp), %eax
	testl	%eax, %eax
	jle	L289
	movl	-24(%ebp), %eax
	cmpl	$3, %eax
	jg	L289
	movl	-40(%ebp), %eax
	cmpl	$19, %eax
	jle	L289
	movl	-40(%ebp), %eax
	cmpl	$25, %eax
	jg	L289
	movl	8(%ebp), %eax
	leal	-40(%ebp), %edx
	movl	%edx, 8(%esp)
	leal	-24(%ebp), %edx
	movl	%edx, 4(%esp)
	movl	%eax, (%esp)
	call	_a_op_TYPE3_c
	testl	%eax, %eax
	je	L286
	movl	$-1, %eax
	jmp	L297
L289:
	movl	-24(%ebp), %eax
	cmpl	$19, %eax
	jle	L291
	movl	-24(%ebp), %eax
	cmpl	$25, %eax
	jg	L291
	movl	-40(%ebp), %eax
	testl	%eax, %eax
	jle	L291
	movl	-40(%ebp), %eax
	cmpl	$3, %eax
	jg	L291
	movl	8(%ebp), %eax
	leal	-40(%ebp), %edx
	movl	%edx, 8(%esp)
	leal	-24(%ebp), %edx
	movl	%edx, 4(%esp)
	movl	%eax, (%esp)
	call	_a_op_TYPE3_d
	testl	%eax, %eax
	je	L286
	movl	$-1, %eax
	jmp	L297
L291:
	movl	-24(%ebp), %eax
	cmpl	$19, %eax
	jle	L293
	movl	-24(%ebp), %eax
	cmpl	$25, %eax
	jg	L293
	movl	-40(%ebp), %eax
	cmpl	$9, %eax
	jle	L293
	movl	-40(%ebp), %eax
	cmpl	$12, %eax
	jg	L293
	movl	8(%ebp), %eax
	leal	-40(%ebp), %edx
	movl	%edx, 8(%esp)
	leal	-24(%ebp), %edx
	movl	%edx, 4(%esp)
	movl	%eax, (%esp)
	call	_a_op_TYPE3_e
	testl	%eax, %eax
	je	L286
	movl	$-1, %eax
	jmp	L297
L293:
	movl	-24(%ebp), %eax
	testl	%eax, %eax
	jle	L295
	movl	-24(%ebp), %eax
	cmpl	$3, %eax
	jg	L295
	movl	-40(%ebp), %eax
	cmpl	$9, %eax
	jle	L295
	movl	-40(%ebp), %eax
	cmpl	$12, %eax
	jg	L295
	movl	8(%ebp), %eax
	leal	-40(%ebp), %edx
	movl	%edx, 8(%esp)
	leal	-24(%ebp), %edx
	movl	%edx, 4(%esp)
	movl	%eax, (%esp)
	call	_a_op_TYPE3_f
	testl	%eax, %eax
	je	L286
	movl	$-1, %eax
	jmp	L297
L295:
	movl	$1416, 4(%esp)
	movl	$5, (%esp)
	call	_a_error_message
	movl	$-1, %eax
	jmp	L297
L286:
	call	_a_objout
	movl	$0, %eax
L297:
	leave
	.cfi_restore 5
	.cfi_def_cfa 4, 4
	ret
	.cfi_endproc
LFE34:
	.globl	_a_op_TYPE4
	.def	_a_op_TYPE4;	.scl	2;	.type	32;	.endef
_a_op_TYPE4:
LFB35:
	.cfi_startproc
	pushl	%ebp
	.cfi_def_cfa_offset 8
	.cfi_offset 5, -8
	movl	%esp, %ebp
	.cfi_def_cfa_register 5
	subl	$40, %esp
	leal	-12(%ebp), %eax
	movl	%eax, (%esp)
	call	_a_expr
	testl	%eax, %eax
	je	L299
	movl	$-1, %eax
	jmp	L304
L299:
	call	_a_spskip
	movl	_a_linebufp, %eax
	movzbl	(%eax), %eax
	cmpb	$58, %al
	jne	L301
	movl	_a_linebufp, %eax
	addl	$1, %eax
	movl	%eax, _a_linebufp
	leal	-16(%ebp), %eax
	movl	%eax, (%esp)
	call	_a_expr
	testl	%eax, %eax
	je	L302
	movl	$-1, %eax
	jmp	L304
L302:
	movl	8(%ebp), %eax
	shrl	$8, %eax
	movb	%al, _a_inst
	movl	-16(%ebp), %eax
	movl	$_a_inst+1, %edx
	movl	%eax, (%edx)
	movl	-12(%ebp), %eax
	movl	$_a_inst+5, %edx
	movw	%ax, (%edx)
	movl	$7, _a_inst_ptr
	jmp	L303
L301:
	movl	8(%ebp), %eax
	movb	%al, _a_inst
	movl	-12(%ebp), %edx
	movl	_a_addr, %eax
	movl	(%eax), %ecx
	movl	%edx, %eax
	subl	%ecx, %eax
	subl	$5, %eax
	movl	$_a_inst+1, %edx
	movl	%eax, (%edx)
	movl	$5, _a_inst_ptr
L303:
	call	_a_objout
	movl	$0, %eax
L304:
	leave
	.cfi_restore 5
	.cfi_def_cfa 4, 4
	ret
	.cfi_endproc
LFE35:
	.globl	_a_op_TYPE5_a
	.def	_a_op_TYPE5_a;	.scl	2;	.type	32;	.endef
_a_op_TYPE5_a:
LFB36:
	.cfi_startproc
	pushl	%ebp
	.cfi_def_cfa_offset 8
	.cfi_offset 5, -8
	movl	%esp, %ebp
	.cfi_def_cfa_register 5
	subl	$24, %esp
	movl	12(%ebp), %eax
	movl	(%eax), %eax
	cmpl	$1, %eax
	jne	L306
	movl	8(%ebp), %eax
	shrl	$8, %eax
	movb	%al, _a_inst
	movl	8(%ebp), %eax
	shrl	$16, %eax
	movl	%eax, %edx
	movl	12(%ebp), %eax
	movl	4(%eax), %eax
	orl	%edx, %eax
	orl	$-64, %eax
	movb	%al, _a_inst+1
	movl	$2, _a_inst_ptr
	jmp	L307
L306:
	movl	12(%ebp), %eax
	movl	(%eax), %eax
	cmpl	$2, %eax
	jne	L308
	movb	$102, _a_inst
	movl	12(%ebp), %eax
	movl	4(%eax), %eax
	movl	%eax, %edx
	movl	8(%ebp), %eax
	orl	%edx, %eax
	movb	%al, _a_inst+1
	movl	$2, _a_inst_ptr
	jmp	L307
L308:
	movl	12(%ebp), %eax
	movl	(%eax), %eax
	cmpl	$3, %eax
	jne	L309
	movl	12(%ebp), %eax
	movl	4(%eax), %eax
	movl	%eax, %edx
	movl	8(%ebp), %eax
	orl	%edx, %eax
	movb	%al, _a_inst
	movl	$1, _a_inst_ptr
	jmp	L307
L309:
	movl	$1469, 4(%esp)
	movl	$5, (%esp)
	call	_a_error_message
	movl	$-1, %eax
	jmp	L310
L307:
	movl	$0, %eax
L310:
	leave
	.cfi_restore 5
	.cfi_def_cfa 4, 4
	ret
	.cfi_endproc
LFE36:
	.globl	_a_op_TYPE5_b_sub
	.def	_a_op_TYPE5_b_sub;	.scl	2;	.type	32;	.endef
_a_op_TYPE5_b_sub:
LFB37:
	.cfi_startproc
	pushl	%ebp
	.cfi_def_cfa_offset 8
	.cfi_offset 5, -8
	movl	%esp, %ebp
	.cfi_def_cfa_register 5
	subl	$24, %esp
	movl	12(%ebp), %eax
	movl	(%eax), %eax
	subl	$20, %eax
	cmpl	$5, %eax
	ja	L312
	movl	L314(,%eax,4), %eax
	jmp	*%eax
	.data
	.align 4
L314:
	.long	L319
	.long	L318
	.long	L317
	.long	L316
	.long	L315
	.long	L313
	.text
L319:
	movl	8(%ebp), %eax
	sarl	$8, %eax
	movl	%eax, %edx
	movl	16(%ebp), %eax
	orl	%edx, %eax
	movl	%eax, %edx
	movl	20(%ebp), %eax
	addl	$_a_inst, %eax
	movb	%dl, (%eax)
	movl	12(%ebp), %eax
	movzbl	12(%eax), %eax
	movl	%eax, %edx
	movl	8(%ebp), %eax
	sarl	$16, %eax
	orl	%eax, %edx
	movl	20(%ebp), %eax
	addl	$1, %eax
	movb	%dl, _a_inst(%eax)
	movl	20(%ebp), %eax
	addl	$2, %eax
	movl	%eax, _a_inst_ptr
	jmp	L320
L318:
	movl	8(%ebp), %eax
	sarl	$8, %eax
	movl	%eax, %edx
	movl	16(%ebp), %eax
	orl	%edx, %eax
	movl	%eax, %edx
	movl	20(%ebp), %eax
	addl	$_a_inst, %eax
	movb	%dl, (%eax)
	movl	12(%ebp), %eax
	movzbl	12(%eax), %eax
	movl	%eax, %edx
	movl	8(%ebp), %eax
	sarl	$16, %eax
	orl	%eax, %edx
	movl	20(%ebp), %eax
	addl	$1, %eax
	movb	%dl, _a_inst(%eax)
	movl	12(%ebp), %eax
	movl	8(%eax), %edx
	movl	20(%ebp), %eax
	addl	$2, %eax
	movb	%dl, _a_inst(%eax)
	movl	20(%ebp), %eax
	addl	$3, %eax
	movl	%eax, _a_inst_ptr
	jmp	L320
L317:
	movl	8(%ebp), %eax
	sarl	$8, %eax
	movl	%eax, %edx
	movl	16(%ebp), %eax
	orl	%edx, %eax
	movl	%eax, %edx
	movl	20(%ebp), %eax
	addl	$_a_inst, %eax
	movb	%dl, (%eax)
	movl	12(%ebp), %eax
	movzbl	12(%eax), %eax
	movl	%eax, %edx
	movl	8(%ebp), %eax
	sarl	$16, %eax
	orl	%eax, %edx
	movl	20(%ebp), %eax
	addl	$1, %eax
	movb	%dl, _a_inst(%eax)
	movl	20(%ebp), %eax
	addl	$2, %eax
	leal	_a_inst(%eax), %edx
	movl	12(%ebp), %eax
	movl	8(%eax), %eax
	movl	%eax, (%edx)
	movl	20(%ebp), %eax
	addl	$6, %eax
	movl	%eax, _a_inst_ptr
	jmp	L320
L316:
	movl	8(%ebp), %eax
	sarl	$8, %eax
	movl	%eax, %edx
	movl	16(%ebp), %eax
	orl	%edx, %eax
	movl	%eax, %edx
	movl	20(%ebp), %eax
	addl	$_a_inst, %eax
	movb	%dl, (%eax)
	movl	12(%ebp), %eax
	movzbl	12(%eax), %eax
	movl	%eax, %edx
	movl	8(%ebp), %eax
	sarl	$16, %eax
	orl	%eax, %edx
	movl	20(%ebp), %eax
	addl	$1, %eax
	movb	%dl, _a_inst(%eax)
	movl	20(%ebp), %eax
	leal	2(%eax), %edx
	movl	12(%ebp), %eax
	movzbl	13(%eax), %eax
	movb	%al, _a_inst(%edx)
	movl	20(%ebp), %eax
	addl	$3, %eax
	movl	%eax, _a_inst_ptr
	jmp	L320
L315:
	movl	8(%ebp), %eax
	sarl	$8, %eax
	movl	%eax, %edx
	movl	16(%ebp), %eax
	orl	%edx, %eax
	movl	%eax, %edx
	movl	20(%ebp), %eax
	addl	$_a_inst, %eax
	movb	%dl, (%eax)
	movl	12(%ebp), %eax
	movzbl	12(%eax), %eax
	movl	%eax, %edx
	movl	8(%ebp), %eax
	sarl	$16, %eax
	orl	%eax, %edx
	movl	20(%ebp), %eax
	addl	$1, %eax
	movb	%dl, _a_inst(%eax)
	movl	20(%ebp), %eax
	leal	2(%eax), %edx
	movl	12(%ebp), %eax
	movzbl	13(%eax), %eax
	movb	%al, _a_inst(%edx)
	movl	12(%ebp), %eax
	movl	8(%eax), %edx
	movl	20(%ebp), %eax
	addl	$3, %eax
	movb	%dl, _a_inst(%eax)
	movl	20(%ebp), %eax
	addl	$4, %eax
	movl	%eax, _a_inst_ptr
	jmp	L320
L313:
	movl	8(%ebp), %eax
	sarl	$8, %eax
	movl	%eax, %edx
	movl	16(%ebp), %eax
	orl	%edx, %eax
	movl	%eax, %edx
	movl	20(%ebp), %eax
	addl	$_a_inst, %eax
	movb	%dl, (%eax)
	movl	12(%ebp), %eax
	movzbl	12(%eax), %eax
	movl	%eax, %edx
	movl	8(%ebp), %eax
	sarl	$16, %eax
	orl	%eax, %edx
	movl	20(%ebp), %eax
	addl	$1, %eax
	movb	%dl, _a_inst(%eax)
	movl	20(%ebp), %eax
	leal	2(%eax), %edx
	movl	12(%ebp), %eax
	movzbl	13(%eax), %eax
	movb	%al, _a_inst(%edx)
	movl	20(%ebp), %eax
	addl	$3, %eax
	leal	_a_inst(%eax), %edx
	movl	12(%ebp), %eax
	movl	8(%eax), %eax
	movl	%eax, (%edx)
	movl	20(%ebp), %eax
	addl	$7, %eax
	movl	%eax, _a_inst_ptr
	jmp	L320
L312:
	movl	$1516, 4(%esp)
	movl	$5, (%esp)
	call	_a_error_message
	movl	$-1, %eax
	jmp	L321
L320:
	movl	$0, %eax
L321:
	leave
	.cfi_restore 5
	.cfi_def_cfa 4, 4
	ret
	.cfi_endproc
LFE37:
	.globl	_a_op_TYPE5_b
	.def	_a_op_TYPE5_b;	.scl	2;	.type	32;	.endef
_a_op_TYPE5_b:
LFB38:
	.cfi_startproc
	pushl	%ebp
	.cfi_def_cfa_offset 8
	.cfi_offset 5, -8
	movl	%esp, %ebp
	.cfi_def_cfa_register 5
	subl	$24, %esp
	cmpl	$1, 12(%ebp)
	jne	L323
	movl	8(%ebp), %eax
	movl	$0, 12(%esp)
	movl	$0, 8(%esp)
	movl	16(%ebp), %edx
	movl	%edx, 4(%esp)
	movl	%eax, (%esp)
	call	_a_op_TYPE5_b_sub
	testl	%eax, %eax
	je	L324
	movl	$-1, %eax
	jmp	L325
L323:
	cmpl	$2, 12(%ebp)
	jne	L326
	movb	$102, _a_inst
	movl	8(%ebp), %eax
	movl	$1, 12(%esp)
	movl	$1, 8(%esp)
	movl	16(%ebp), %edx
	movl	%edx, 4(%esp)
	movl	%eax, (%esp)
	call	_a_op_TYPE5_b_sub
	testl	%eax, %eax
	je	L324
	movl	$-1, %eax
	jmp	L325
L326:
	cmpl	$3, 12(%ebp)
	jne	L324
	movl	8(%ebp), %eax
	movl	$0, 12(%esp)
	movl	$1, 8(%esp)
	movl	16(%ebp), %edx
	movl	%edx, 4(%esp)
	movl	%eax, (%esp)
	call	_a_op_TYPE5_b_sub
	testl	%eax, %eax
	je	L324
	movl	$-1, %eax
	jmp	L325
L324:
	movl	$0, %eax
L325:
	leave
	.cfi_restore 5
	.cfi_def_cfa 4, 4
	ret
	.cfi_endproc
LFE38:
	.globl	_a_op_TYPE5
	.def	_a_op_TYPE5;	.scl	2;	.type	32;	.endef
_a_op_TYPE5:
LFB39:
	.cfi_startproc
	pushl	%ebp
	.cfi_def_cfa_offset 8
	.cfi_offset 5, -8
	movl	%esp, %ebp
	.cfi_def_cfa_register 5
	subl	$56, %esp
	movl	_a_linebufp, %eax
	movl	%eax, -12(%ebp)
	call	_a_getsym
	testl	%eax, %eax
	je	L328
	movl	$-1, %eax
	jmp	L339
L328:
	call	_a_symsrch
	movl	%eax, -16(%ebp)
	cmpl	$0, -16(%ebp)
	js	L330
	movl	-16(%ebp), %edx
	movl	%edx, %eax
	sall	$3, %eax
	addl	%edx, %eax
	sall	$3, %eax
	addl	$_a_symtbl+64, %eax
	movl	(%eax), %eax
	cmpl	$1007, %eax
	jne	L330
	movl	-16(%ebp), %edx
	movl	%edx, %eax
	sall	$3, %eax
	addl	%edx, %eax
	sall	$3, %eax
	addl	$_a_symtbl+68, %eax
	movl	(%eax), %eax
	movl	%eax, -20(%ebp)
	leal	-36(%ebp), %eax
	movl	%eax, (%esp)
	call	_a_get1operand
	testl	%eax, %eax
	je	L331
	movl	$-1, %eax
	jmp	L339
L331:
	movl	-36(%ebp), %eax
	cmpl	$19, %eax
	jle	L332
	movl	-36(%ebp), %eax
	cmpl	$25, %eax
	jg	L332
	leal	-36(%ebp), %eax
	movl	%eax, 8(%esp)
	movl	-20(%ebp), %eax
	movl	%eax, 4(%esp)
	movl	8(%ebp), %eax
	movl	%eax, (%esp)
	call	_a_op_TYPE5_b
	testl	%eax, %eax
	je	L334
	movl	$-1, %eax
	jmp	L339
L332:
	movl	$1567, 4(%esp)
	movl	$5, (%esp)
	call	_a_error_message
	movl	$-1, %eax
	jmp	L339
L334:
	jmp	L335
L330:
	movl	-12(%ebp), %eax
	movl	%eax, _a_linebufp
	leal	-36(%ebp), %eax
	movl	%eax, (%esp)
	call	_a_get1operand
	testl	%eax, %eax
	je	L336
	movl	$-1, %eax
	jmp	L339
L336:
	movl	-36(%ebp), %eax
	testl	%eax, %eax
	jle	L337
	movl	-36(%ebp), %eax
	cmpl	$3, %eax
	jg	L337
	leal	-36(%ebp), %eax
	movl	%eax, 4(%esp)
	movl	8(%ebp), %eax
	movl	%eax, (%esp)
	call	_a_op_TYPE5_a
	testl	%eax, %eax
	je	L335
	movl	$-1, %eax
	jmp	L339
L337:
	movl	$1582, 4(%esp)
	movl	$5, (%esp)
	call	_a_error_message
	movl	$-1, %eax
	jmp	L339
L335:
	call	_a_objout
	movl	$0, %eax
L339:
	leave
	.cfi_restore 5
	.cfi_def_cfa 4, 4
	ret
	.cfi_endproc
LFE39:
	.globl	_a_op_TYPE6_a
	.def	_a_op_TYPE6_a;	.scl	2;	.type	32;	.endef
_a_op_TYPE6_a:
LFB40:
	.cfi_startproc
	pushl	%ebp
	.cfi_def_cfa_offset 8
	.cfi_offset 5, -8
	movl	%esp, %ebp
	.cfi_def_cfa_register 5
	subl	$24, %esp
	movl	12(%ebp), %eax
	movl	(%eax), %eax
	cmpl	$1, %eax
	jne	L341
	movl	8(%ebp), %eax
	movb	%al, _a_inst
	movl	8(%ebp), %eax
	shrl	$8, %eax
	movl	%eax, %edx
	movl	12(%ebp), %eax
	movl	4(%eax), %eax
	orl	%edx, %eax
	orl	$-64, %eax
	movb	%al, _a_inst+1
	movl	$2, _a_inst_ptr
	jmp	L342
L341:
	movl	12(%ebp), %eax
	movl	(%eax), %eax
	cmpl	$2, %eax
	jne	L343
	movb	$102, _a_inst
	movl	8(%ebp), %eax
	orl	$1, %eax
	movb	%al, _a_inst+1
	movl	8(%ebp), %eax
	shrl	$8, %eax
	movl	%eax, %edx
	movl	12(%ebp), %eax
	movl	4(%eax), %eax
	orl	%edx, %eax
	orl	$-64, %eax
	movb	%al, _a_inst+2
	movl	$3, _a_inst_ptr
	jmp	L342
L343:
	movl	12(%ebp), %eax
	movl	(%eax), %eax
	cmpl	$3, %eax
	jne	L344
	movl	8(%ebp), %eax
	orl	$1, %eax
	movb	%al, _a_inst
	movl	8(%ebp), %eax
	shrl	$8, %eax
	movl	%eax, %edx
	movl	12(%ebp), %eax
	movl	4(%eax), %eax
	orl	%edx, %eax
	orl	$-64, %eax
	movb	%al, _a_inst+1
	movl	$2, _a_inst_ptr
	jmp	L342
L344:
	movl	$1610, 4(%esp)
	movl	$5, (%esp)
	call	_a_error_message
	movl	$-1, %eax
	jmp	L345
L342:
	movl	$0, %eax
L345:
	leave
	.cfi_restore 5
	.cfi_def_cfa 4, 4
	ret
	.cfi_endproc
LFE40:
	.globl	_a_op_TYPE6
	.def	_a_op_TYPE6;	.scl	2;	.type	32;	.endef
_a_op_TYPE6:
LFB41:
	.cfi_startproc
	pushl	%ebp
	.cfi_def_cfa_offset 8
	.cfi_offset 5, -8
	movl	%esp, %ebp
	.cfi_def_cfa_register 5
	subl	$56, %esp
	movl	_a_linebufp, %eax
	movl	%eax, -12(%ebp)
	call	_a_getsym
	testl	%eax, %eax
	je	L347
	movl	$-1, %eax
	jmp	L358
L347:
	call	_a_symsrch
	movl	%eax, -16(%ebp)
	cmpl	$0, -16(%ebp)
	js	L349
	movl	-16(%ebp), %edx
	movl	%edx, %eax
	sall	$3, %eax
	addl	%edx, %eax
	sall	$3, %eax
	addl	$_a_symtbl+64, %eax
	movl	(%eax), %eax
	cmpl	$1007, %eax
	jne	L349
	movl	-16(%ebp), %edx
	movl	%edx, %eax
	sall	$3, %eax
	addl	%edx, %eax
	sall	$3, %eax
	addl	$_a_symtbl+68, %eax
	movl	(%eax), %eax
	movl	%eax, -20(%ebp)
	leal	-36(%ebp), %eax
	movl	%eax, (%esp)
	call	_a_get1operand
	testl	%eax, %eax
	je	L350
	movl	$-1, %eax
	jmp	L358
L350:
	movl	-36(%ebp), %eax
	cmpl	$19, %eax
	jle	L351
	movl	-36(%ebp), %eax
	cmpl	$25, %eax
	jg	L351
	movl	8(%ebp), %eax
	sall	$8, %eax
	movl	%eax, %edx
	leal	-36(%ebp), %eax
	movl	%eax, 8(%esp)
	movl	-20(%ebp), %eax
	movl	%eax, 4(%esp)
	movl	%edx, (%esp)
	call	_a_op_TYPE5_b
	testl	%eax, %eax
	je	L353
	movl	$-1, %eax
	jmp	L358
L351:
	movl	$1639, 4(%esp)
	movl	$5, (%esp)
	call	_a_error_message
	movl	$-1, %eax
	jmp	L358
L353:
	jmp	L354
L349:
	movl	-12(%ebp), %eax
	movl	%eax, _a_linebufp
	leal	-36(%ebp), %eax
	movl	%eax, (%esp)
	call	_a_get1operand
	testl	%eax, %eax
	je	L355
	movl	$-1, %eax
	jmp	L358
L355:
	movl	-36(%ebp), %eax
	testl	%eax, %eax
	jle	L356
	movl	-36(%ebp), %eax
	cmpl	$3, %eax
	jg	L356
	leal	-36(%ebp), %eax
	movl	%eax, 4(%esp)
	movl	8(%ebp), %eax
	movl	%eax, (%esp)
	call	_a_op_TYPE6_a
	testl	%eax, %eax
	je	L354
	movl	$-1, %eax
	jmp	L358
L356:
	movl	$1654, 4(%esp)
	movl	$5, (%esp)
	call	_a_error_message
	movl	$-1, %eax
	jmp	L358
L354:
	call	_a_objout
	movl	$0, %eax
L358:
	leave
	.cfi_restore 5
	.cfi_def_cfa 4, 4
	ret
	.cfi_endproc
LFE41:
	.globl	_a_op_TYPE7
	.def	_a_op_TYPE7;	.scl	2;	.type	32;	.endef
_a_op_TYPE7:
LFB42:
	.cfi_startproc
	pushl	%ebp
	.cfi_def_cfa_offset 8
	.cfi_offset 5, -8
	movl	%esp, %ebp
	.cfi_def_cfa_register 5
	subl	$40, %esp
	movl	8(%ebp), %eax
	movb	%al, _a_inst
	leal	-12(%ebp), %eax
	movl	%eax, (%esp)
	call	_a_expr
	testl	%eax, %eax
	je	L360
	movl	$-1, %eax
	jmp	L362
L360:
	movl	-12(%ebp), %eax
	movb	%al, _a_inst+1
	movl	$2, _a_inst_ptr
	call	_a_objout
	movl	$0, %eax
L362:
	leave
	.cfi_restore 5
	.cfi_def_cfa 4, 4
	ret
	.cfi_endproc
LFE42:
	.globl	_a_op_TYPE8
	.def	_a_op_TYPE8;	.scl	2;	.type	32;	.endef
_a_op_TYPE8:
LFB43:
	.cfi_startproc
	pushl	%ebp
	.cfi_def_cfa_offset 8
	.cfi_offset 5, -8
	movl	%esp, %ebp
	.cfi_def_cfa_register 5
	subl	$40, %esp
	leal	-12(%ebp), %eax
	movl	%eax, (%esp)
	call	_a_expr
	testl	%eax, %eax
	je	L364
	movl	$-1, %eax
	jmp	L366
L364:
	movl	$_a_inst, %edx
	movl	8(%ebp), %eax
	movw	%ax, (%edx)
	movl	-12(%ebp), %edx
	movl	_a_addr, %eax
	movl	(%eax), %ecx
	movl	%edx, %eax
	subl	%ecx, %eax
	subl	$6, %eax
	movl	$_a_inst+2, %edx
	movl	%eax, (%edx)
	movl	$6, _a_inst_ptr
	call	_a_objout
	movl	$0, %eax
L366:
	leave
	.cfi_restore 5
	.cfi_def_cfa 4, 4
	ret
	.cfi_endproc
LFE43:
	.globl	_a_op_TYPE9_a
	.def	_a_op_TYPE9_a;	.scl	2;	.type	32;	.endef
_a_op_TYPE9_a:
LFB44:
	.cfi_startproc
	pushl	%ebp
	.cfi_def_cfa_offset 8
	.cfi_offset 5, -8
	movl	%esp, %ebp
	.cfi_def_cfa_register 5
	subl	$24, %esp
	movl	12(%ebp), %eax
	movl	(%eax), %eax
	cmpl	$1, %eax
	jne	L368
	movb	$-94, _a_inst
	movl	8(%ebp), %eax
	movl	8(%eax), %eax
	movl	$_a_inst+1, %edx
	movl	%eax, (%edx)
	movl	$5, _a_inst_ptr
	jmp	L369
L368:
	movl	12(%ebp), %eax
	movl	(%eax), %eax
	cmpl	$2, %eax
	jne	L370
	movb	$102, _a_inst
	movb	$-93, _a_inst+1
	movl	8(%ebp), %eax
	movl	8(%eax), %eax
	movl	$_a_inst+2, %edx
	movl	%eax, (%edx)
	movl	$6, _a_inst_ptr
	jmp	L369
L370:
	movl	12(%ebp), %eax
	movl	(%eax), %eax
	cmpl	$3, %eax
	jne	L371
	movb	$-93, _a_inst
	movl	8(%ebp), %eax
	movl	8(%eax), %eax
	movl	$_a_inst+1, %edx
	movl	%eax, (%edx)
	movl	$5, _a_inst_ptr
	jmp	L369
L371:
	movl	$1712, 4(%esp)
	movl	$5, (%esp)
	call	_a_error_message
	movl	$-1, %eax
	jmp	L372
L369:
	movl	$0, %eax
L372:
	leave
	.cfi_restore 5
	.cfi_def_cfa 4, 4
	ret
	.cfi_endproc
LFE44:
	.globl	_a_op_TYPE9_b
	.def	_a_op_TYPE9_b;	.scl	2;	.type	32;	.endef
_a_op_TYPE9_b:
LFB45:
	.cfi_startproc
	pushl	%ebp
	.cfi_def_cfa_offset 8
	.cfi_offset 5, -8
	movl	%esp, %ebp
	.cfi_def_cfa_register 5
	subl	$24, %esp
	movl	8(%ebp), %eax
	movl	(%eax), %eax
	cmpl	$1, %eax
	jne	L374
	movb	$-96, _a_inst
	movl	12(%ebp), %eax
	movl	8(%eax), %eax
	movl	$_a_inst+1, %edx
	movl	%eax, (%edx)
	movl	$5, _a_inst_ptr
	jmp	L375
L374:
	movl	8(%ebp), %eax
	movl	(%eax), %eax
	cmpl	$2, %eax
	jne	L376
	movb	$102, _a_inst
	movb	$-95, _a_inst+1
	movl	12(%ebp), %eax
	movl	8(%eax), %eax
	movl	$_a_inst+2, %edx
	movl	%eax, (%edx)
	movl	$6, _a_inst_ptr
	jmp	L375
L376:
	movl	8(%ebp), %eax
	movl	(%eax), %eax
	cmpl	$3, %eax
	jne	L377
	movb	$-95, _a_inst
	movl	12(%ebp), %eax
	movl	8(%eax), %eax
	movl	$_a_inst+1, %edx
	movl	%eax, (%edx)
	movl	$5, _a_inst_ptr
	jmp	L375
L377:
	movl	$1738, 4(%esp)
	movl	$5, (%esp)
	call	_a_error_message
	movl	$-1, %eax
	jmp	L378
L375:
	movl	$0, %eax
L378:
	leave
	.cfi_restore 5
	.cfi_def_cfa 4, 4
	ret
	.cfi_endproc
LFE45:
	.globl	_a_op_TYPE9_c
	.def	_a_op_TYPE9_c;	.scl	2;	.type	32;	.endef
_a_op_TYPE9_c:
LFB46:
	.cfi_startproc
	pushl	%ebp
	.cfi_def_cfa_offset 8
	.cfi_offset 5, -8
	movl	%esp, %ebp
	.cfi_def_cfa_register 5
	subl	$24, %esp
	movl	8(%ebp), %eax
	movl	(%eax), %eax
	cmpl	$1, %eax
	jne	L380
	movl	8(%ebp), %eax
	movl	4(%eax), %eax
	orl	$-80, %eax
	movb	%al, _a_inst
	movl	12(%ebp), %eax
	movl	8(%eax), %eax
	movb	%al, _a_inst+1
	movl	$2, _a_inst_ptr
	jmp	L381
L380:
	movl	8(%ebp), %eax
	movl	(%eax), %eax
	cmpl	$2, %eax
	jne	L382
	movb	$102, _a_inst
	movl	8(%ebp), %eax
	movl	4(%eax), %eax
	orl	$-72, %eax
	movb	%al, _a_inst+1
	movl	12(%ebp), %eax
	movl	8(%eax), %eax
	movl	$_a_inst+2, %edx
	movw	%ax, (%edx)
	movl	$4, _a_inst_ptr
	jmp	L381
L382:
	movl	8(%ebp), %eax
	movl	(%eax), %eax
	cmpl	$3, %eax
	jne	L383
	movl	8(%ebp), %eax
	movl	4(%eax), %eax
	orl	$-72, %eax
	movb	%al, _a_inst
	movl	12(%ebp), %eax
	movl	8(%eax), %eax
	movl	$_a_inst+1, %edx
	movl	%eax, (%edx)
	movl	$5, _a_inst_ptr
	jmp	L381
L383:
	movl	$1764, 4(%esp)
	movl	$5, (%esp)
	call	_a_error_message
	movl	$-1, %eax
	jmp	L384
L381:
	movl	$0, %eax
L384:
	leave
	.cfi_restore 5
	.cfi_def_cfa 4, 4
	ret
	.cfi_endproc
LFE46:
	.globl	_a_op_TYPE9_d
	.def	_a_op_TYPE9_d;	.scl	2;	.type	32;	.endef
_a_op_TYPE9_d:
LFB47:
	.cfi_startproc
	pushl	%ebp
	.cfi_def_cfa_offset 8
	.cfi_offset 5, -8
	movl	%esp, %ebp
	.cfi_def_cfa_register 5
	subl	$72, %esp
	movl	_a_linebufp, %eax
	movl	%eax, -12(%ebp)
	call	_a_spskip
	call	_is_symtop
	testl	%eax, %eax
	jne	L386
	movl	$0, %eax
	jmp	L402
L386:
	call	_a_getsym
	testl	%eax, %eax
	je	L388
	movl	$-1, %eax
	jmp	L402
L388:
	call	_a_symsrch
	movl	%eax, -16(%ebp)
	cmpl	$0, -16(%ebp)
	js	L389
	movl	-16(%ebp), %edx
	movl	%edx, %eax
	sall	$3, %eax
	addl	%edx, %eax
	sall	$3, %eax
	addl	$_a_symtbl+64, %eax
	movl	(%eax), %eax
	cmpl	$1007, %eax
	jne	L389
	movl	-16(%ebp), %edx
	movl	%edx, %eax
	sall	$3, %eax
	addl	%edx, %eax
	sall	$3, %eax
	addl	$_a_symtbl+68, %eax
	movl	(%eax), %eax
	movl	%eax, -20(%ebp)
	leal	-36(%ebp), %eax
	movl	%eax, (%esp)
	call	_a_get1operand
	testl	%eax, %eax
	je	L390
	movl	$-1, %eax
	jmp	L402
L390:
	movl	-36(%ebp), %eax
	cmpl	$19, %eax
	jle	L391
	movl	-36(%ebp), %eax
	cmpl	$25, %eax
	jg	L391
	leal	-36(%ebp), %eax
	movl	%eax, 8(%esp)
	movl	-20(%ebp), %eax
	movl	%eax, 4(%esp)
	movl	$50688, (%esp)
	call	_a_op_TYPE5_b
	testl	%eax, %eax
	je	L393
	movl	$-1, %eax
	jmp	L402
L391:
	movl	$1798, 4(%esp)
	movl	$5, (%esp)
	call	_a_error_message
	movl	$-1, %eax
	jmp	L402
L393:
	call	_a_spskip
	movl	_a_linebufp, %eax
	movzbl	(%eax), %eax
	cmpb	$44, %al
	je	L394
	movl	$1803, 4(%esp)
	movl	$5, (%esp)
	call	_a_error_message
	movl	$-1, %eax
	jmp	L402
L394:
	movl	_a_linebufp, %eax
	addl	$1, %eax
	movl	%eax, _a_linebufp
	leal	-52(%ebp), %eax
	movl	%eax, (%esp)
	call	_a_get1operand
	testl	%eax, %eax
	je	L395
	movl	$-1, %eax
	jmp	L402
L395:
	movl	-52(%ebp), %eax
	cmpl	$9, %eax
	jle	L396
	movl	-52(%ebp), %eax
	cmpl	$12, %eax
	jle	L397
L396:
	movl	$1811, 4(%esp)
	movl	$5, (%esp)
	call	_a_error_message
	movl	$-1, %eax
	jmp	L402
L397:
	cmpl	$1, -20(%ebp)
	jne	L398
	movl	-44(%ebp), %edx
	movl	_a_inst_ptr, %eax
	movb	%dl, _a_inst(%eax)
	movl	_a_inst_ptr, %eax
	addl	$1, %eax
	movl	%eax, _a_inst_ptr
	jmp	L403
L398:
	cmpl	$2, -20(%ebp)
	jne	L400
	movl	-44(%ebp), %edx
	movl	_a_inst_ptr, %eax
	addl	$_a_inst, %eax
	movw	%dx, (%eax)
	movl	_a_inst_ptr, %eax
	addl	$2, %eax
	movl	%eax, _a_inst_ptr
	jmp	L403
L400:
	cmpl	$3, -20(%ebp)
	jne	L403
	movl	-44(%ebp), %edx
	movl	_a_inst_ptr, %eax
	addl	$_a_inst, %eax
	movl	%edx, (%eax)
	movl	_a_inst_ptr, %eax
	addl	$4, %eax
	movl	%eax, _a_inst_ptr
	jmp	L403
L389:
	movl	-12(%ebp), %eax
	movl	%eax, _a_linebufp
	movl	$0, %eax
	jmp	L402
L403:
	nop
	movl	$1, %eax
L402:
	leave
	.cfi_restore 5
	.cfi_def_cfa 4, 4
	ret
	.cfi_endproc
LFE47:
	.globl	_a_op_TYPE9
	.def	_a_op_TYPE9;	.scl	2;	.type	32;	.endef
_a_op_TYPE9:
LFB48:
	.cfi_startproc
	pushl	%ebp
	.cfi_def_cfa_offset 8
	.cfi_offset 5, -8
	movl	%esp, %ebp
	.cfi_def_cfa_register 5
	subl	$56, %esp
	call	_a_op_TYPE9_d
	testl	%eax, %eax
	je	L405
	call	_a_objout
	movl	$0, %eax
	jmp	L423
L405:
	leal	-24(%ebp), %eax
	movl	%eax, (%esp)
	call	_a_get1operand
	testl	%eax, %eax
	je	L407
	movl	$-1, %eax
	jmp	L423
L407:
	call	_a_spskip
	movl	_a_linebufp, %eax
	movzbl	(%eax), %eax
	cmpb	$44, %al
	je	L408
	movl	$1849, 4(%esp)
	movl	$5, (%esp)
	call	_a_error_message
	movl	$-1, %eax
	jmp	L423
L408:
	movl	_a_linebufp, %eax
	addl	$1, %eax
	movl	%eax, _a_linebufp
	leal	-40(%ebp), %eax
	movl	%eax, (%esp)
	call	_a_get1operand
	testl	%eax, %eax
	je	L409
	movl	$-1, %eax
	jmp	L423
L409:
	movl	-24(%ebp), %eax
	cmpl	$22, %eax
	jne	L410
	movzbl	-12(%ebp), %eax
	cmpb	$5, %al
	jne	L410
	movl	-40(%ebp), %eax
	testl	%eax, %eax
	jle	L410
	movl	-40(%ebp), %eax
	cmpl	$3, %eax
	jg	L410
	movl	-36(%ebp), %eax
	testl	%eax, %eax
	jne	L410
	leal	-40(%ebp), %eax
	movl	%eax, 4(%esp)
	leal	-24(%ebp), %eax
	movl	%eax, (%esp)
	call	_a_op_TYPE9_a
	testl	%eax, %eax
	je	L412
	movl	$-1, %eax
	jmp	L423
L410:
	movl	-24(%ebp), %eax
	testl	%eax, %eax
	jle	L413
	movl	-24(%ebp), %eax
	cmpl	$3, %eax
	jg	L413
	movl	-20(%ebp), %eax
	testl	%eax, %eax
	jne	L413
	movl	-40(%ebp), %eax
	cmpl	$22, %eax
	jne	L413
	movzbl	-28(%ebp), %eax
	cmpb	$5, %al
	jne	L413
	leal	-40(%ebp), %eax
	movl	%eax, 4(%esp)
	leal	-24(%ebp), %eax
	movl	%eax, (%esp)
	call	_a_op_TYPE9_b
	testl	%eax, %eax
	je	L412
	movl	$-1, %eax
	jmp	L423
L413:
	movl	-24(%ebp), %eax
	testl	%eax, %eax
	jle	L415
	movl	-24(%ebp), %eax
	cmpl	$3, %eax
	jg	L415
	movl	-40(%ebp), %eax
	cmpl	$9, %eax
	jle	L415
	movl	-40(%ebp), %eax
	cmpl	$12, %eax
	jg	L415
	leal	-40(%ebp), %eax
	movl	%eax, 4(%esp)
	leal	-24(%ebp), %eax
	movl	%eax, (%esp)
	call	_a_op_TYPE9_c
	testl	%eax, %eax
	je	L412
	movl	$-1, %eax
	jmp	L423
L415:
	movl	-24(%ebp), %eax
	testl	%eax, %eax
	jle	L417
	movl	-24(%ebp), %eax
	cmpl	$3, %eax
	jg	L417
	movl	-40(%ebp), %eax
	cmpl	$19, %eax
	jle	L417
	movl	-40(%ebp), %eax
	cmpl	$25, %eax
	jg	L417
	leal	-40(%ebp), %eax
	movl	%eax, 8(%esp)
	leal	-24(%ebp), %eax
	movl	%eax, 4(%esp)
	movl	$136, (%esp)
	call	_a_op_TYPE3_c
	testl	%eax, %eax
	je	L412
	movl	$-1, %eax
	jmp	L423
L417:
	movl	-24(%ebp), %eax
	cmpl	$19, %eax
	jle	L419
	movl	-24(%ebp), %eax
	cmpl	$25, %eax
	jg	L419
	movl	-40(%ebp), %eax
	testl	%eax, %eax
	jle	L419
	movl	-40(%ebp), %eax
	cmpl	$3, %eax
	jg	L419
	leal	-40(%ebp), %eax
	movl	%eax, 8(%esp)
	leal	-24(%ebp), %eax
	movl	%eax, 4(%esp)
	movl	$136, (%esp)
	call	_a_op_TYPE3_d
	testl	%eax, %eax
	je	L412
	movl	$-1, %eax
	jmp	L423
L419:
	movl	-24(%ebp), %eax
	testl	%eax, %eax
	jle	L421
	movl	-24(%ebp), %eax
	cmpl	$3, %eax
	jg	L421
	movl	-40(%ebp), %eax
	testl	%eax, %eax
	jle	L421
	movl	-40(%ebp), %eax
	cmpl	$3, %eax
	jg	L421
	leal	-40(%ebp), %eax
	movl	%eax, 8(%esp)
	leal	-24(%ebp), %eax
	movl	%eax, 4(%esp)
	movl	$136, (%esp)
	call	_a_op_TYPE3_b
	testl	%eax, %eax
	je	L412
	movl	$-1, %eax
	jmp	L423
L421:
	movl	$1894, 4(%esp)
	movl	$5, (%esp)
	call	_a_error_message
	movl	$-1, %eax
	jmp	L423
L412:
	call	_a_objout
	movl	$0, %eax
L423:
	leave
	.cfi_restore 5
	.cfi_def_cfa 4, 4
	ret
	.cfi_endproc
LFE48:
	.globl	_a_op_TYPE10
	.def	_a_op_TYPE10;	.scl	2;	.type	32;	.endef
_a_op_TYPE10:
LFB49:
	.cfi_startproc
	pushl	%ebp
	.cfi_def_cfa_offset 8
	.cfi_offset 5, -8
	movl	%esp, %ebp
	.cfi_def_cfa_register 5
	subl	$56, %esp
	movl	_a_linebufp, %eax
	movl	%eax, -12(%ebp)
	call	_a_getsym
	testl	%eax, %eax
	je	L425
	movl	$-1, %eax
	jmp	L436
L425:
	call	_a_symsrch
	movl	%eax, -16(%ebp)
	cmpl	$0, -16(%ebp)
	js	L427
	movl	-16(%ebp), %edx
	movl	%edx, %eax
	sall	$3, %eax
	addl	%edx, %eax
	sall	$3, %eax
	addl	$_a_symtbl+64, %eax
	movl	(%eax), %eax
	cmpl	$1007, %eax
	jne	L427
	movl	-16(%ebp), %edx
	movl	%edx, %eax
	sall	$3, %eax
	addl	%edx, %eax
	sall	$3, %eax
	addl	$_a_symtbl+68, %eax
	movl	(%eax), %eax
	movl	%eax, -20(%ebp)
	leal	-36(%ebp), %eax
	movl	%eax, (%esp)
	call	_a_get1operand
	testl	%eax, %eax
	je	L428
	movl	$-1, %eax
	jmp	L436
L428:
	movl	-36(%ebp), %eax
	cmpl	$19, %eax
	jle	L429
	movl	-36(%ebp), %eax
	cmpl	$25, %eax
	jg	L429
	cmpl	$1, -20(%ebp)
	je	L429
	leal	-36(%ebp), %eax
	movl	%eax, 8(%esp)
	movl	-20(%ebp), %eax
	movl	%eax, 4(%esp)
	movl	8(%ebp), %eax
	movl	%eax, (%esp)
	call	_a_op_TYPE5_b
	testl	%eax, %eax
	je	L431
	movl	$-1, %eax
	jmp	L436
L429:
	movl	$1924, 4(%esp)
	movl	$5, (%esp)
	call	_a_error_message
	movl	$-1, %eax
	jmp	L436
L431:
	jmp	L432
L427:
	movl	-12(%ebp), %eax
	movl	%eax, _a_linebufp
	leal	-36(%ebp), %eax
	movl	%eax, (%esp)
	call	_a_get1operand
	testl	%eax, %eax
	je	L433
	movl	$-1, %eax
	jmp	L436
L433:
	movl	-36(%ebp), %eax
	cmpl	$1, %eax
	jle	L434
	movl	-36(%ebp), %eax
	cmpl	$3, %eax
	jg	L434
	leal	-36(%ebp), %eax
	movl	%eax, 4(%esp)
	movl	8(%ebp), %eax
	movl	%eax, (%esp)
	call	_a_op_TYPE5_a
	testl	%eax, %eax
	je	L432
	movl	$-1, %eax
	jmp	L436
L434:
	movl	$1939, 4(%esp)
	movl	$5, (%esp)
	call	_a_error_message
	movl	$-1, %eax
	jmp	L436
L432:
	call	_a_objout
	movl	$0, %eax
L436:
	leave
	.cfi_restore 5
	.cfi_def_cfa 4, 4
	ret
	.cfi_endproc
LFE49:
	.globl	_a_op_TYPE11
	.def	_a_op_TYPE11;	.scl	2;	.type	32;	.endef
_a_op_TYPE11:
LFB50:
	.cfi_startproc
	pushl	%ebp
	.cfi_def_cfa_offset 8
	.cfi_offset 5, -8
	movl	%esp, %ebp
	.cfi_def_cfa_register 5
	subl	$72, %esp
	movl	_a_linebufp, %eax
	movl	%eax, -16(%ebp)
	call	_a_getsym
	testl	%eax, %eax
	je	L438
	movl	$-1, %eax
	jmp	L457
L438:
	call	_a_symsrch
	movl	%eax, -20(%ebp)
	cmpl	$0, -20(%ebp)
	js	L440
	movl	-20(%ebp), %edx
	movl	%edx, %eax
	sall	$3, %eax
	addl	%edx, %eax
	sall	$3, %eax
	addl	$_a_symtbl+64, %eax
	movl	(%eax), %eax
	cmpl	$1007, %eax
	jne	L440
	movl	-20(%ebp), %edx
	movl	%edx, %eax
	sall	$3, %eax
	addl	%edx, %eax
	sall	$3, %eax
	addl	$_a_symtbl+68, %eax
	movl	(%eax), %eax
	movl	%eax, -24(%ebp)
	leal	-40(%ebp), %eax
	movl	%eax, (%esp)
	call	_a_get1operand
	testl	%eax, %eax
	je	L441
	movl	$-1, %eax
	jmp	L457
L441:
	call	_a_spskip
	movl	_a_linebufp, %eax
	leal	1(%eax), %edx
	movl	%edx, _a_linebufp
	movzbl	(%eax), %eax
	cmpb	$44, %al
	je	L442
	movl	$1966, 4(%esp)
	movl	$5, (%esp)
	call	_a_error_message
	movl	$-1, %eax
	jmp	L457
L442:
	leal	-56(%ebp), %eax
	movl	%eax, (%esp)
	call	_a_get1operand
	testl	%eax, %eax
	je	L443
	movl	$-1, %eax
	jmp	L457
L443:
	movl	-56(%ebp), %eax
	cmpl	$10, %eax
	jne	L444
	movl	-48(%ebp), %eax
	cmpl	$1, %eax
	jne	L444
	movl	$0, -12(%ebp)
	jmp	L445
L444:
	movl	-56(%ebp), %eax
	cmpl	$1, %eax
	jne	L445
	movl	-52(%ebp), %eax
	cmpl	$1, %eax
	jne	L445
	movl	$2, -12(%ebp)
L445:
	movl	-40(%ebp), %eax
	cmpl	$19, %eax
	jle	L446
	movl	-40(%ebp), %eax
	cmpl	$25, %eax
	jg	L446
	movl	-12(%ebp), %eax
	orl	8(%ebp), %eax
	sall	$8, %eax
	movl	%eax, %edx
	leal	-40(%ebp), %eax
	movl	%eax, 8(%esp)
	movl	-24(%ebp), %eax
	movl	%eax, 4(%esp)
	movl	%edx, (%esp)
	call	_a_op_TYPE5_b
	testl	%eax, %eax
	je	L448
	movl	$-1, %eax
	jmp	L457
L446:
	movl	$1984, 4(%esp)
	movl	$5, (%esp)
	call	_a_error_message
	movl	$-1, %eax
	jmp	L457
L448:
	jmp	L449
L440:
	movl	-16(%ebp), %eax
	movl	%eax, _a_linebufp
	leal	-40(%ebp), %eax
	movl	%eax, (%esp)
	call	_a_get1operand
	testl	%eax, %eax
	je	L450
	movl	$-1, %eax
	jmp	L457
L450:
	call	_a_spskip
	movl	_a_linebufp, %eax
	leal	1(%eax), %edx
	movl	%edx, _a_linebufp
	movzbl	(%eax), %eax
	cmpb	$44, %al
	je	L451
	movl	$1995, 4(%esp)
	movl	$5, (%esp)
	call	_a_error_message
	movl	$-1, %eax
	jmp	L457
L451:
	leal	-56(%ebp), %eax
	movl	%eax, (%esp)
	call	_a_get1operand
	testl	%eax, %eax
	je	L452
	movl	$-1, %eax
	jmp	L457
L452:
	movl	-56(%ebp), %eax
	cmpl	$10, %eax
	jne	L453
	movl	-48(%ebp), %eax
	cmpl	$1, %eax
	jne	L453
	movl	$0, -12(%ebp)
	jmp	L454
L453:
	movl	-56(%ebp), %eax
	cmpl	$1, %eax
	jne	L454
	movl	-52(%ebp), %eax
	cmpl	$1, %eax
	jne	L454
	movl	$2, -12(%ebp)
L454:
	movl	-40(%ebp), %eax
	testl	%eax, %eax
	jle	L455
	movl	-40(%ebp), %eax
	cmpl	$3, %eax
	jg	L455
	movl	-12(%ebp), %eax
	orl	8(%ebp), %eax
	leal	-40(%ebp), %edx
	movl	%edx, 4(%esp)
	movl	%eax, (%esp)
	call	_a_op_TYPE6_a
	testl	%eax, %eax
	je	L449
	movl	$-1, %eax
	jmp	L457
L455:
	movl	$2013, 4(%esp)
	movl	$5, (%esp)
	call	_a_error_message
	movl	$-1, %eax
	jmp	L457
L449:
	call	_a_objout
	movl	$0, %eax
L457:
	leave
	.cfi_restore 5
	.cfi_def_cfa 4, 4
	ret
	.cfi_endproc
LFE50:
	.globl	_a_op_TYPE12
	.def	_a_op_TYPE12;	.scl	2;	.type	32;	.endef
_a_op_TYPE12:
LFB51:
	.cfi_startproc
	pushl	%ebp
	.cfi_def_cfa_offset 8
	.cfi_offset 5, -8
	movl	%esp, %ebp
	.cfi_def_cfa_register 5
	subl	$40, %esp
	call	_a_spskip
	movl	_a_linebufp, %eax
	movzbl	(%eax), %eax
	testb	%al, %al
	je	L459
	movl	_a_linebufp, %eax
	movzbl	(%eax), %eax
	cmpb	$59, %al
	jne	L460
L459:
	movl	8(%ebp), %eax
	movb	%al, _a_inst
	movl	$1, _a_inst_ptr
	jmp	L461
L460:
	movl	8(%ebp), %eax
	shrl	$8, %eax
	movb	%al, _a_inst
	leal	-12(%ebp), %eax
	movl	%eax, (%esp)
	call	_a_expr
	testl	%eax, %eax
	je	L462
	movl	$-1, %eax
	jmp	L464
L462:
	movl	-12(%ebp), %eax
	movl	$_a_inst+1, %edx
	movw	%ax, (%edx)
	movl	$3, _a_inst_ptr
L461:
	call	_a_objout
	movl	$0, %eax
L464:
	leave
	.cfi_restore 5
	.cfi_def_cfa 4, 4
	ret
	.cfi_endproc
LFE51:
	.globl	_a_op_TYPE13
	.def	_a_op_TYPE13;	.scl	2;	.type	32;	.endef
_a_op_TYPE13:
LFB52:
	.cfi_startproc
	pushl	%ebp
	.cfi_def_cfa_offset 8
	.cfi_offset 5, -8
	movl	%esp, %ebp
	.cfi_def_cfa_register 5
	subl	$72, %esp
	movl	_a_linebufp, %eax
	movl	%eax, -12(%ebp)
	leal	-28(%ebp), %eax
	movl	%eax, (%esp)
	call	_a_get1operand
	testl	%eax, %eax
	je	L466
	movl	$-1, %eax
	jmp	L479
L466:
	call	_a_spskip
	movl	_a_linebufp, %eax
	movzbl	(%eax), %eax
	cmpb	$44, %al
	je	L468
	movl	$2055, 4(%esp)
	movl	$5, (%esp)
	call	_a_error_message
	movl	$-1, %eax
	jmp	L479
L468:
	movl	_a_linebufp, %eax
	addl	$1, %eax
	movl	%eax, _a_linebufp
	leal	-44(%ebp), %eax
	movl	%eax, (%esp)
	call	_a_get1operand
	testl	%eax, %eax
	je	L469
	movl	$-1, %eax
	jmp	L479
L469:
	movl	-28(%ebp), %eax
	testl	%eax, %eax
	jle	L470
	movl	-28(%ebp), %eax
	cmpl	$3, %eax
	jg	L470
	movl	-44(%ebp), %eax
	testl	%eax, %eax
	jle	L470
	movl	-44(%ebp), %eax
	cmpl	$3, %eax
	jg	L470
	movl	8(%ebp), %eax
	leal	-44(%ebp), %edx
	movl	%edx, 8(%esp)
	leal	-28(%ebp), %edx
	movl	%edx, 4(%esp)
	movl	%eax, (%esp)
	call	_a_op_TYPE3_b
	testl	%eax, %eax
	je	L472
	movl	$-1, %eax
	jmp	L479
L470:
	movl	-28(%ebp), %eax
	testl	%eax, %eax
	jle	L473
	movl	-28(%ebp), %eax
	cmpl	$3, %eax
	jg	L473
	movl	-44(%ebp), %eax
	cmpl	$19, %eax
	jle	L473
	movl	-44(%ebp), %eax
	cmpl	$25, %eax
	jg	L473
	movl	8(%ebp), %eax
	leal	-44(%ebp), %edx
	movl	%edx, 8(%esp)
	leal	-28(%ebp), %edx
	movl	%edx, 4(%esp)
	movl	%eax, (%esp)
	call	_a_op_TYPE3_c
	testl	%eax, %eax
	je	L472
	movl	$-1, %eax
	jmp	L479
L473:
	movl	-28(%ebp), %eax
	cmpl	$19, %eax
	jle	L475
	movl	-28(%ebp), %eax
	cmpl	$25, %eax
	jg	L475
	movl	-44(%ebp), %eax
	testl	%eax, %eax
	jle	L475
	movl	-44(%ebp), %eax
	cmpl	$3, %eax
	jg	L475
	movl	8(%ebp), %eax
	leal	-44(%ebp), %edx
	movl	%edx, 8(%esp)
	leal	-28(%ebp), %edx
	movl	%edx, 4(%esp)
	movl	%eax, (%esp)
	call	_a_op_TYPE3_d
	testl	%eax, %eax
	je	L472
	movl	$-1, %eax
	jmp	L479
L475:
	movl	-12(%ebp), %eax
	movl	%eax, _a_linebufp
	movl	8(%ebp), %eax
	movl	%eax, (%esp)
	call	_a_op_TYPE3
	jmp	L479
L472:
	movzbl	_a_inst, %eax
	cmpb	$102, %al
	jne	L477
	movzbl	_a_inst+1, %eax
	andl	$-3, %eax
	movb	%al, _a_inst+1
	jmp	L478
L477:
	movzbl	_a_inst, %eax
	andl	$-3, %eax
	movb	%al, _a_inst
L478:
	call	_a_objout
	movl	$0, %eax
L479:
	leave
	.cfi_restore 5
	.cfi_def_cfa 4, 4
	ret
	.cfi_endproc
LFE52:
	.globl	_a_op_TYPE14
	.def	_a_op_TYPE14;	.scl	2;	.type	32;	.endef
_a_op_TYPE14:
LFB53:
	.cfi_startproc
	pushl	%ebp
	.cfi_def_cfa_offset 8
	.cfi_offset 5, -8
	movl	%esp, %ebp
	.cfi_def_cfa_register 5
	subl	$72, %esp
	leal	-24(%ebp), %eax
	movl	%eax, (%esp)
	call	_a_get1operand
	testl	%eax, %eax
	je	L481
	movl	$-1, %eax
	jmp	L494
L481:
	call	_a_spskip
	movl	_a_linebufp, %eax
	leal	1(%eax), %edx
	movl	%edx, _a_linebufp
	movzbl	(%eax), %eax
	cmpb	$44, %al
	je	L483
	movl	$2105, 4(%esp)
	movl	$5, (%esp)
	call	_a_error_message
	movl	$-1, %eax
	jmp	L494
L483:
	leal	-40(%ebp), %eax
	movl	%eax, (%esp)
	call	_a_get1operand
	testl	%eax, %eax
	je	L484
	movl	$-1, %eax
	jmp	L494
L484:
	movl	-24(%ebp), %eax
	testl	%eax, %eax
	jle	L485
	movl	-24(%ebp), %eax
	cmpl	$3, %eax
	jg	L485
	movl	-40(%ebp), %eax
	testl	%eax, %eax
	jle	L485
	movl	-40(%ebp), %eax
	cmpl	$3, %eax
	jg	L485
	movl	-24(%ebp), %edx
	movl	-40(%ebp), %eax
	cmpl	%eax, %edx
	je	L486
	movl	$2114, 4(%esp)
	movl	$5, (%esp)
	call	_a_error_message
	movl	$-1, %eax
	jmp	L494
L486:
	movl	-36(%ebp), %eax
	testl	%eax, %eax
	jne	L487
	movl	-24(%ebp), %eax
	movl	%eax, -56(%ebp)
	movl	-20(%ebp), %eax
	movl	%eax, -52(%ebp)
	movl	-16(%ebp), %eax
	movl	%eax, -48(%ebp)
	movl	-12(%ebp), %eax
	movl	%eax, -44(%ebp)
	movl	-40(%ebp), %eax
	movl	%eax, -24(%ebp)
	movl	-36(%ebp), %eax
	movl	%eax, -20(%ebp)
	movl	-32(%ebp), %eax
	movl	%eax, -16(%ebp)
	movl	-28(%ebp), %eax
	movl	%eax, -12(%ebp)
	movl	-56(%ebp), %eax
	movl	%eax, -40(%ebp)
	movl	-52(%ebp), %eax
	movl	%eax, -36(%ebp)
	movl	-48(%ebp), %eax
	movl	%eax, -32(%ebp)
	movl	-44(%ebp), %eax
	movl	%eax, -28(%ebp)
L487:
	movl	-24(%ebp), %eax
	cmpl	$2, %eax
	jne	L488
	movl	-20(%ebp), %eax
	testl	%eax, %eax
	jne	L488
	movb	$102, _a_inst
	movl	-36(%ebp), %eax
	movl	%eax, %edx
	movl	8(%ebp), %eax
	orl	%edx, %eax
	movb	%al, _a_inst+1
	movl	$2, _a_inst_ptr
	jmp	L489
L488:
	movl	-24(%ebp), %eax
	cmpl	$3, %eax
	jne	L490
	movl	-20(%ebp), %eax
	testl	%eax, %eax
	jne	L490
	movl	-36(%ebp), %eax
	movl	%eax, %edx
	movl	8(%ebp), %eax
	orl	%edx, %eax
	movb	%al, _a_inst
	movl	$1, _a_inst_ptr
	jmp	L489
L490:
	movl	8(%ebp), %eax
	shrl	$8, %eax
	movl	%eax, %edx
	leal	-40(%ebp), %eax
	movl	%eax, 8(%esp)
	leal	-24(%ebp), %eax
	movl	%eax, 4(%esp)
	movl	%edx, (%esp)
	call	_a_op_TYPE3_b
	testl	%eax, %eax
	je	L495
	movl	$-1, %eax
	jmp	L494
L489:
	jmp	L495
L485:
	movl	-24(%ebp), %eax
	testl	%eax, %eax
	jle	L492
	movl	-24(%ebp), %eax
	cmpl	$3, %eax
	jg	L492
	movl	-40(%ebp), %eax
	cmpl	$19, %eax
	jle	L492
	movl	-40(%ebp), %eax
	cmpl	$25, %eax
	jg	L492
	movl	8(%ebp), %eax
	shrl	$8, %eax
	movl	%eax, %edx
	leal	-40(%ebp), %eax
	movl	%eax, 8(%esp)
	leal	-24(%ebp), %eax
	movl	%eax, 4(%esp)
	movl	%edx, (%esp)
	call	_a_op_TYPE3_c
	testl	%eax, %eax
	je	L491
	movl	$-1, %eax
	jmp	L494
L492:
	movl	-24(%ebp), %eax
	cmpl	$19, %eax
	jle	L491
	movl	-24(%ebp), %eax
	cmpl	$25, %eax
	jg	L491
	movl	-40(%ebp), %eax
	testl	%eax, %eax
	jle	L491
	movl	-40(%ebp), %eax
	cmpl	$3, %eax
	jg	L491
	movl	8(%ebp), %eax
	shrl	$8, %eax
	movl	%eax, %edx
	leal	-40(%ebp), %eax
	movl	%eax, 8(%esp)
	leal	-24(%ebp), %eax
	movl	%eax, 4(%esp)
	movl	%edx, (%esp)
	call	_a_op_TYPE3_d
	testl	%eax, %eax
	je	L491
	movl	$-1, %eax
	jmp	L494
L495:
	nop
L491:
	call	_a_objout
	movl	$0, %eax
L494:
	leave
	.cfi_restore 5
	.cfi_def_cfa 4, 4
	ret
	.cfi_endproc
LFE53:
	.globl	_a_op_TYPE_SECTION
	.def	_a_op_TYPE_SECTION;	.scl	2;	.type	32;	.endef
_a_op_TYPE_SECTION:
LFB54:
	.cfi_startproc
	pushl	%ebp
	.cfi_def_cfa_offset 8
	.cfi_offset 5, -8
	movl	%esp, %ebp
	.cfi_def_cfa_register 5
	pushl	%ebx
	subl	$36, %esp
	.cfi_offset 3, -12
	call	_a_getsym
	testl	%eax, %eax
	je	L497
	movl	$-1, %eax
	jmp	L498
L497:
	movl	$0, -12(%ebp)
	jmp	L499
L501:
	movl	-12(%ebp), %eax
	imull	$68, %eax, %eax
	addl	$_a_section, %eax
	movl	%eax, 4(%esp)
	movl	$_a_symbuf, (%esp)
	call	_strcmp
	testl	%eax, %eax
	jne	L500
	movl	-12(%ebp), %eax
	movl	%eax, _a_section_numb
	movl	-12(%ebp), %eax
	imull	$68, %eax, %eax
	addl	$64, %eax
	addl	$_a_section, %eax
	movl	%eax, _a_addr
	movl	_a_objfile, %ecx
	movl	_a_objfile_ptr, %eax
	leal	1(%eax), %edx
	movl	%edx, _a_objfile_ptr
	addl	%ecx, %eax
	movb	$2, (%eax)
	movl	_a_objfile, %ecx
	movl	_a_objfile_ptr, %eax
	leal	1(%eax), %edx
	movl	%edx, _a_objfile_ptr
	addl	%ecx, %eax
	movb	$2, (%eax)
	movl	_a_objfile, %ecx
	movl	_a_objfile_ptr, %eax
	leal	1(%eax), %edx
	movl	%edx, _a_objfile_ptr
	addl	%ecx, %eax
	movl	-12(%ebp), %edx
	movb	%dl, (%eax)
	movl	$0, %eax
	jmp	L498
L500:
	addl	$1, -12(%ebp)
L499:
	movl	_a_section_ptr, %eax
	cmpl	%eax, -12(%ebp)
	jl	L501
	movl	_a_section_ptr, %eax
	imull	$68, %eax, %eax
	addl	$_a_section, %eax
	movl	$_a_symbuf, 4(%esp)
	movl	%eax, (%esp)
	call	_strcpy
	movl	_a_section_ptr, %eax
	movl	%eax, _a_section_numb
	movl	_a_section_ptr, %eax
	imull	$68, %eax, %eax
	addl	$64, %eax
	addl	$_a_section, %eax
	movl	%eax, _a_addr
	movl	_a_objfile, %ecx
	movl	_a_objfile_ptr, %eax
	leal	1(%eax), %edx
	movl	%edx, _a_objfile_ptr
	addl	%ecx, %eax
	movb	$2, (%eax)
	movl	_a_objfile, %ecx
	movl	_a_objfile_ptr, %eax
	leal	1(%eax), %edx
	movl	%edx, _a_objfile_ptr
	addl	%ecx, %eax
	movb	$2, (%eax)
	movl	_a_section_ptr, %ecx
	movl	_a_objfile, %ebx
	movl	_a_objfile_ptr, %eax
	leal	1(%eax), %edx
	movl	%edx, _a_objfile_ptr
	addl	%ebx, %eax
	movl	%ecx, %edx
	movb	%dl, (%eax)
	movl	_a_section_ptr, %eax
	addl	$1, %eax
	movl	%eax, _a_section_ptr
	movl	$0, %eax
L498:
	movl	-4(%ebp), %ebx
	leave
	.cfi_restore 5
	.cfi_restore 3
	.cfi_def_cfa 4, 4
	ret
	.cfi_endproc
LFE54:
	.globl	_a_op_ORG
	.def	_a_op_ORG;	.scl	2;	.type	32;	.endef
_a_op_ORG:
LFB55:
	.cfi_startproc
	pushl	%ebp
	.cfi_def_cfa_offset 8
	.cfi_offset 5, -8
	movl	%esp, %ebp
	.cfi_def_cfa_register 5
	subl	$24, %esp
	movl	_a_addr, %eax
	movl	%eax, (%esp)
	call	_a_expr
	leave
	.cfi_restore 5
	.cfi_def_cfa 4, 4
	ret
	.cfi_endproc
LFE55:
	.globl	_a_op_EQU
	.def	_a_op_EQU;	.scl	2;	.type	32;	.endef
_a_op_EQU:
LFB56:
	.cfi_startproc
	pushl	%ebp
	.cfi_def_cfa_offset 8
	.cfi_offset 5, -8
	movl	%esp, %ebp
	.cfi_def_cfa_register 5
	subl	$40, %esp
	movl	_a_linebufp, %eax
	movl	%eax, -12(%ebp)
	movl	$_a_linebuf, _a_linebufp
	call	_a_getsym
	testl	%eax, %eax
	je	L505
	movl	$-1, %eax
	jmp	L510
L505:
	call	_a_symsrch
	movl	%eax, -16(%ebp)
	cmpl	$0, -16(%ebp)
	jns	L507
	movl	$2207, 4(%esp)
	movl	$6, (%esp)
	call	_a_error_message
	movl	$-1, %eax
	jmp	L510
L507:
	movl	-12(%ebp), %eax
	movl	%eax, _a_linebufp
	leal	-20(%ebp), %eax
	movl	%eax, (%esp)
	call	_a_expr
	testl	%eax, %eax
	je	L508
	movl	$-1, %eax
	jmp	L510
L508:
	movl	-16(%ebp), %edx
	movl	%edx, %eax
	sall	$3, %eax
	addl	%edx, %eax
	sall	$3, %eax
	addl	$_a_symtbl+64, %eax
	movl	(%eax), %eax
	cmpl	$1003, %eax
	jne	L509
	movl	-16(%ebp), %edx
	movl	%edx, %eax
	sall	$3, %eax
	addl	%edx, %eax
	sall	$3, %eax
	addl	$_a_symtbl+68, %eax
	movl	(%eax), %edx
	movl	-20(%ebp), %eax
	cmpl	%eax, %edx
	je	L509
	movl	$1, _a_chg_flag
L509:
	movl	-20(%ebp), %edx
	movl	-16(%ebp), %ecx
	movl	%ecx, %eax
	sall	$3, %eax
	addl	%ecx, %eax
	sall	$3, %eax
	addl	$_a_symtbl+68, %eax
	movl	%edx, (%eax)
	movl	-16(%ebp), %edx
	movl	%edx, %eax
	sall	$3, %eax
	addl	%edx, %eax
	sall	$3, %eax
	addl	$_a_symtbl+64, %eax
	movl	$1003, (%eax)
	movl	$_a_inst, %ecx
	movl	-16(%ebp), %edx
	movl	%edx, %eax
	sall	$3, %eax
	addl	%edx, %eax
	sall	$3, %eax
	addl	$_a_symtbl+68, %eax
	movl	(%eax), %eax
	movl	%eax, (%ecx)
	movl	$4, _a_inst_ptr
	call	_a_listout
	movl	$0, _a_inst_ptr
	movl	$0, %eax
L510:
	leave
	.cfi_restore 5
	.cfi_def_cfa 4, 4
	ret
	.cfi_endproc
LFE56:
	.globl	_a_op_DB
	.def	_a_op_DB;	.scl	2;	.type	32;	.endef
_a_op_DB:
LFB57:
	.cfi_startproc
	pushl	%ebp
	.cfi_def_cfa_offset 8
	.cfi_offset 5, -8
	movl	%esp, %ebp
	.cfi_def_cfa_register 5
	subl	$40, %esp
	movl	$1, -12(%ebp)
L521:
	leal	-16(%ebp), %eax
	movl	%eax, (%esp)
	call	_a_expr
	testl	%eax, %eax
	je	L512
	movl	$-1, %eax
	jmp	L522
L512:
	movl	-16(%ebp), %ecx
	movl	_a_inst_ptr, %eax
	leal	1(%eax), %edx
	movl	%edx, _a_inst_ptr
	movl	%ecx, %edx
	movb	%dl, _a_inst(%eax)
	movl	_a_inst_ptr, %eax
	cmpl	$9, %eax
	jle	L514
	cmpl	$0, -12(%ebp)
	je	L515
	movl	$0, -12(%ebp)
	call	_a_listout
	jmp	L516
L515:
	call	_a_listout_nosrc
L516:
	call	_a_objout
	movl	_a_addr, %eax
	movl	(%eax), %edx
	movl	_a_inst_ptr, %eax
	movl	%eax, %ecx
	movl	_a_addr, %eax
	addl	%ecx, %edx
	movl	%edx, (%eax)
	movl	$0, _a_inst_ptr
L514:
	call	_a_spskip
	movl	_a_linebufp, %eax
	movzbl	(%eax), %eax
	cmpb	$44, %al
	je	L517
	movl	_a_inst_ptr, %eax
	testl	%eax, %eax
	je	L518
	cmpl	$0, -12(%ebp)
	je	L519
	movl	$0, -12(%ebp)
	call	_a_listout
	jmp	L520
L519:
	call	_a_listout_nosrc
L520:
	call	_a_objout
	movl	_a_addr, %eax
	movl	(%eax), %edx
	movl	_a_inst_ptr, %eax
	movl	%eax, %ecx
	movl	_a_addr, %eax
	addl	%ecx, %edx
	movl	%edx, (%eax)
	movl	$0, _a_inst_ptr
L518:
	movl	$0, %eax
	jmp	L522
L517:
	movl	_a_linebufp, %eax
	addl	$1, %eax
	movl	%eax, _a_linebufp
	jmp	L521
L522:
	leave
	.cfi_restore 5
	.cfi_def_cfa 4, 4
	ret
	.cfi_endproc
LFE57:
	.globl	_a_op_DD
	.def	_a_op_DD;	.scl	2;	.type	32;	.endef
_a_op_DD:
LFB58:
	.cfi_startproc
	pushl	%ebp
	.cfi_def_cfa_offset 8
	.cfi_offset 5, -8
	movl	%esp, %ebp
	.cfi_def_cfa_register 5
	subl	$40, %esp
	movl	$1, -12(%ebp)
L533:
	leal	-16(%ebp), %eax
	movl	%eax, (%esp)
	call	_a_expr
	testl	%eax, %eax
	je	L524
	movl	$-1, %eax
	jmp	L534
L524:
	movl	_a_inst_ptr, %eax
	leal	_a_inst(%eax), %edx
	movl	-16(%ebp), %eax
	movl	%eax, (%edx)
	movl	_a_inst_ptr, %eax
	addl	$4, %eax
	movl	%eax, _a_inst_ptr
	movl	_a_inst_ptr, %eax
	cmpl	$7, %eax
	jle	L526
	cmpl	$0, -12(%ebp)
	je	L527
	movl	$0, -12(%ebp)
	call	_a_listout
	jmp	L528
L527:
	call	_a_listout_nosrc
L528:
	call	_a_objout
	movl	_a_addr, %eax
	movl	(%eax), %edx
	movl	_a_inst_ptr, %eax
	movl	%eax, %ecx
	movl	_a_addr, %eax
	addl	%ecx, %edx
	movl	%edx, (%eax)
	movl	$0, _a_inst_ptr
L526:
	call	_a_spskip
	movl	_a_linebufp, %eax
	movzbl	(%eax), %eax
	cmpb	$44, %al
	je	L529
	movl	_a_inst_ptr, %eax
	testl	%eax, %eax
	je	L530
	cmpl	$0, -12(%ebp)
	je	L531
	movl	$0, -12(%ebp)
	call	_a_listout
	jmp	L532
L531:
	call	_a_listout_nosrc
L532:
	call	_a_objout
	movl	_a_addr, %eax
	movl	(%eax), %edx
	movl	_a_inst_ptr, %eax
	movl	%eax, %ecx
	movl	_a_addr, %eax
	addl	%ecx, %edx
	movl	%edx, (%eax)
	movl	$0, _a_inst_ptr
L530:
	movl	$0, %eax
	jmp	L534
L529:
	movl	_a_linebufp, %eax
	addl	$1, %eax
	movl	%eax, _a_linebufp
	jmp	L533
L534:
	leave
	.cfi_restore 5
	.cfi_def_cfa 4, 4
	ret
	.cfi_endproc
LFE58:
	.globl	_a_op_DW
	.def	_a_op_DW;	.scl	2;	.type	32;	.endef
_a_op_DW:
LFB59:
	.cfi_startproc
	pushl	%ebp
	.cfi_def_cfa_offset 8
	.cfi_offset 5, -8
	movl	%esp, %ebp
	.cfi_def_cfa_register 5
	subl	$40, %esp
	movl	$1, -12(%ebp)
L545:
	leal	-16(%ebp), %eax
	movl	%eax, (%esp)
	call	_a_expr
	testl	%eax, %eax
	je	L536
	movl	$-1, %eax
	jmp	L546
L536:
	movl	-16(%ebp), %edx
	movl	_a_inst_ptr, %eax
	addl	$_a_inst, %eax
	movw	%dx, (%eax)
	movl	_a_inst_ptr, %eax
	addl	$2, %eax
	movl	%eax, _a_inst_ptr
	movl	_a_inst_ptr, %eax
	cmpl	$9, %eax
	jle	L538
	cmpl	$0, -12(%ebp)
	je	L539
	movl	$0, -12(%ebp)
	call	_a_listout
	jmp	L540
L539:
	call	_a_listout_nosrc
L540:
	call	_a_objout
	movl	_a_addr, %eax
	movl	(%eax), %edx
	movl	_a_inst_ptr, %eax
	movl	%eax, %ecx
	movl	_a_addr, %eax
	addl	%ecx, %edx
	movl	%edx, (%eax)
	movl	$0, _a_inst_ptr
L538:
	call	_a_spskip
	movl	_a_linebufp, %eax
	movzbl	(%eax), %eax
	cmpb	$44, %al
	je	L541
	movl	_a_inst_ptr, %eax
	testl	%eax, %eax
	je	L542
	cmpl	$0, -12(%ebp)
	je	L543
	movl	$0, -12(%ebp)
	call	_a_listout
	jmp	L544
L543:
	call	_a_listout_nosrc
L544:
	call	_a_objout
	movl	_a_addr, %eax
	movl	(%eax), %edx
	movl	_a_inst_ptr, %eax
	movl	%eax, %ecx
	movl	_a_addr, %eax
	addl	%ecx, %edx
	movl	%edx, (%eax)
	movl	$0, _a_inst_ptr
L542:
	movl	$0, %eax
	jmp	L546
L541:
	movl	_a_linebufp, %eax
	addl	$1, %eax
	movl	%eax, _a_linebufp
	jmp	L545
L546:
	leave
	.cfi_restore 5
	.cfi_def_cfa 4, 4
	ret
	.cfi_endproc
LFE59:
	.globl	_a_label_process
	.def	_a_label_process;	.scl	2;	.type	32;	.endef
_a_label_process:
LFB60:
	.cfi_startproc
	pushl	%ebp
	.cfi_def_cfa_offset 8
	.cfi_offset 5, -8
	movl	%esp, %ebp
	.cfi_def_cfa_register 5
	subl	$40, %esp
	call	_a_getsym
	testl	%eax, %eax
	je	L548
	movl	$-1, %eax
	jmp	L549
L548:
	movl	_a_linebufp, %eax
	movzbl	(%eax), %eax
	cmpb	$58, %al
	jne	L550
	movl	_a_linebufp, %eax
	addl	$1, %eax
	movl	%eax, _a_linebufp
L550:
	movl	_a_pass, %eax
	cmpl	$1, %eax
	jne	L551
	call	_a_symsrch
	movl	%eax, -12(%ebp)
	cmpl	$0, -12(%ebp)
	js	L552
	movl	$2379, 4(%esp)
	movl	$3, (%esp)
	call	_a_error_message
	movl	$-1, %eax
	jmp	L549
L552:
	movl	_a_symtbl_ptr, %edx
	movl	%edx, %eax
	sall	$3, %eax
	addl	%edx, %eax
	sall	$3, %eax
	addl	$_a_symtbl, %eax
	movl	$_a_symbuf, 4(%esp)
	movl	%eax, (%esp)
	call	_strcpy
	movl	_a_symtbl_ptr, %edx
	movl	%edx, %eax
	sall	$3, %eax
	addl	%edx, %eax
	sall	$3, %eax
	addl	$_a_symtbl+64, %eax
	movl	$1000, (%eax)
	movl	_a_addr, %eax
	movl	_a_symtbl_ptr, %ecx
	movl	(%eax), %edx
	movl	%ecx, %eax
	sall	$3, %eax
	addl	%ecx, %eax
	sall	$3, %eax
	addl	$_a_symtbl+68, %eax
	movl	%edx, (%eax)
	movl	_a_symtbl_ptr, %eax
	addl	$1, %eax
	movl	%eax, _a_symtbl_ptr
	jmp	L553
L551:
	movl	_a_pass, %eax
	cmpl	$2, %eax
	jne	L553
	call	_a_symsrch
	movl	%eax, -12(%ebp)
	cmpl	$0, -12(%ebp)
	jns	L554
	movl	$2391, 4(%esp)
	movl	$4, (%esp)
	call	_a_error_message
	movl	$-1, %eax
	jmp	L549
L554:
	movl	-12(%ebp), %edx
	movl	%edx, %eax
	sall	$3, %eax
	addl	%edx, %eax
	sall	$3, %eax
	addl	$_a_symtbl+64, %eax
	movl	(%eax), %eax
	cmpl	$1000, %eax
	jne	L553
	movl	_a_addr, %eax
	movl	(%eax), %ecx
	movl	-12(%ebp), %edx
	movl	%edx, %eax
	sall	$3, %eax
	addl	%edx, %eax
	sall	$3, %eax
	addl	$_a_symtbl+68, %eax
	movl	(%eax), %eax
	cmpl	%eax, %ecx
	je	L555
	movl	$1, _a_chg_flag
L555:
	movl	_a_addr, %eax
	movl	(%eax), %edx
	movl	-12(%ebp), %ecx
	movl	%ecx, %eax
	sall	$3, %eax
	addl	%ecx, %eax
	sall	$3, %eax
	addl	$_a_symtbl+68, %eax
	movl	%edx, (%eax)
L553:
	movl	$0, %eax
L549:
	leave
	.cfi_restore 5
	.cfi_def_cfa 4, 4
	ret
	.cfi_endproc
LFE60:
	.data
LC137:
	.ascii "%s  \0"
	.text
	.globl	_a_opcode
	.def	_a_opcode;	.scl	2;	.type	32;	.endef
_a_opcode:
LFB61:
	.cfi_startproc
	pushl	%ebp
	.cfi_def_cfa_offset 8
	.cfi_offset 5, -8
	movl	%esp, %ebp
	.cfi_def_cfa_register 5
	subl	$40, %esp
	call	_a_getsym
	testl	%eax, %eax
	je	L557
	movl	$-1, %eax
	jmp	L558
L557:
	call	_a_symsrch
	movl	%eax, -12(%ebp)
	cmpl	$0, -12(%ebp)
	jns	L559
	movl	_cmd_sht, %eax
	movl	$_a_symbuf, 8(%esp)
	movl	$LC137, 4(%esp)
	movl	%eax, (%esp)
	call	_ut_printf
	movl	$2416, 4(%esp)
	movl	$4, (%esp)
	call	_a_error_message
	movl	$-1, %eax
	jmp	L558
L559:
	movl	$0, _a_inst_ptr
	movl	-12(%ebp), %edx
	movl	%edx, %eax
	sall	$3, %eax
	addl	%edx, %eax
	sall	$3, %eax
	addl	$_a_symtbl+68, %eax
	movl	(%eax), %eax
	movl	%eax, -16(%ebp)
	movl	-12(%ebp), %edx
	movl	%edx, %eax
	sall	$3, %eax
	addl	%edx, %eax
	sall	$3, %eax
	addl	$_a_symtbl+64, %eax
	movl	(%eax), %eax
	cmpl	$14, %eax
	jg	L560
	testl	%eax, %eax
	jg	L561
	jmp	L562
L585:
	subl	$1001, %eax
	cmpl	$5, %eax
	ja	L562
	movl	L564(,%eax,4), %eax
	jmp	*%eax
	.data
	.align 4
L564:
	.long	L569
	.long	L568
	.long	L567
	.long	L566
	.long	L565
	.long	L563
	.text
L561:
	cmpl	$14, %eax
	ja	L562
	movl	L571(,%eax,4), %eax
	jmp	*%eax
	.data
	.align 4
L571:
	.long	L562
	.long	L584
	.long	L583
	.long	L582
	.long	L581
	.long	L580
	.long	L579
	.long	L578
	.long	L577
	.long	L576
	.long	L575
	.long	L574
	.long	L573
	.long	L572
	.long	L570
	.text
L560:
	cmpl	$1006, %eax
	jg	L562
	cmpl	$1001, %eax
	jge	L585
	jmp	L562
L584:
	movl	-16(%ebp), %eax
	movl	%eax, (%esp)
	call	_a_op_TYPE1
	jmp	L586
L583:
	movl	-16(%ebp), %eax
	movl	%eax, (%esp)
	call	_a_op_TYPE2
	jmp	L586
L582:
	movl	-16(%ebp), %eax
	movl	%eax, (%esp)
	call	_a_op_TYPE3
	testl	%eax, %eax
	je	L605
	movl	$-1, %eax
	jmp	L558
L581:
	movl	-16(%ebp), %eax
	movl	%eax, (%esp)
	call	_a_op_TYPE4
	testl	%eax, %eax
	je	L606
	movl	$-1, %eax
	jmp	L558
L580:
	movl	-16(%ebp), %eax
	movl	%eax, (%esp)
	call	_a_op_TYPE5
	testl	%eax, %eax
	je	L607
	movl	$-1, %eax
	jmp	L558
L579:
	movl	-16(%ebp), %eax
	movl	%eax, (%esp)
	call	_a_op_TYPE6
	testl	%eax, %eax
	je	L608
	movl	$-1, %eax
	jmp	L558
L578:
	movl	-16(%ebp), %eax
	movl	%eax, (%esp)
	call	_a_op_TYPE7
	testl	%eax, %eax
	je	L609
	movl	$-1, %eax
	jmp	L558
L577:
	movl	-16(%ebp), %eax
	movl	%eax, (%esp)
	call	_a_op_TYPE8
	testl	%eax, %eax
	je	L610
	movl	$-1, %eax
	jmp	L558
L576:
	call	_a_op_TYPE9
	testl	%eax, %eax
	je	L611
	movl	$-1, %eax
	jmp	L558
L575:
	movl	-16(%ebp), %eax
	movl	%eax, (%esp)
	call	_a_op_TYPE10
	testl	%eax, %eax
	je	L612
	movl	$-1, %eax
	jmp	L558
L574:
	movl	-16(%ebp), %eax
	movl	%eax, (%esp)
	call	_a_op_TYPE11
	testl	%eax, %eax
	je	L613
	movl	$-1, %eax
	jmp	L558
L573:
	movl	-16(%ebp), %eax
	movl	%eax, (%esp)
	call	_a_op_TYPE12
	testl	%eax, %eax
	je	L614
	movl	$-1, %eax
	jmp	L558
L572:
	movl	-16(%ebp), %eax
	movl	%eax, (%esp)
	call	_a_op_TYPE13
	testl	%eax, %eax
	je	L615
	movl	$-1, %eax
	jmp	L558
L570:
	movl	-16(%ebp), %eax
	movl	%eax, (%esp)
	call	_a_op_TYPE14
	testl	%eax, %eax
	je	L616
	movl	$-1, %eax
	jmp	L558
L566:
	call	_a_op_DB
	testl	%eax, %eax
	je	L599
	movl	$-1, %eax
	jmp	L558
L599:
	movl	$1, %eax
	jmp	L558
L563:
	call	_a_op_DD
	testl	%eax, %eax
	je	L600
	movl	$-1, %eax
	jmp	L558
L600:
	movl	$1, %eax
	jmp	L558
L565:
	call	_a_op_DW
	testl	%eax, %eax
	je	L601
	movl	$-1, %eax
	jmp	L558
L601:
	movl	$1, %eax
	jmp	L558
L567:
	call	_a_op_EQU
	testl	%eax, %eax
	je	L602
	movl	$-1, %eax
	jmp	L558
L602:
	movl	$1, %eax
	jmp	L558
L568:
	call	_a_op_ORG
	testl	%eax, %eax
	je	L617
	movl	$-1, %eax
	jmp	L558
L569:
	call	_a_op_TYPE_SECTION
	testl	%eax, %eax
	je	L618
	movl	$-1, %eax
	jmp	L558
L562:
	movl	$2519, 4(%esp)
	movl	$5, (%esp)
	call	_a_error_message
	movl	$-1, %eax
	jmp	L558
L605:
	nop
	jmp	L586
L606:
	nop
	jmp	L586
L607:
	nop
	jmp	L586
L608:
	nop
	jmp	L586
L609:
	nop
	jmp	L586
L610:
	nop
	jmp	L586
L611:
	nop
	jmp	L586
L612:
	nop
	jmp	L586
L613:
	nop
	jmp	L586
L614:
	nop
	jmp	L586
L615:
	nop
	jmp	L586
L616:
	nop
	jmp	L586
L617:
	nop
	jmp	L586
L618:
	nop
L586:
	movl	$0, %eax
L558:
	leave
	.cfi_restore 5
	.cfi_def_cfa 4, 4
	ret
	.cfi_endproc
LFE61:
	.globl	_a_asm
	.def	_a_asm;	.scl	2;	.type	32;	.endef
_a_asm:
LFB62:
	.cfi_startproc
	pushl	%ebp
	.cfi_def_cfa_offset 8
	.cfi_offset 5, -8
	movl	%esp, %ebp
	.cfi_def_cfa_register 5
	subl	$40, %esp
	movl	$1, _a_linenumb
L630:
	movl	_a_srcfile_ptr, %edx
	movl	_a_srcfile_len, %eax
	cmpl	%eax, %edx
	jl	L620
	movl	$0, %eax
	jmp	L621
L620:
	call	_a_get1line
	movl	$0, _a_inst_ptr
	call	_is_symtop
	testl	%eax, %eax
	je	L622
	call	_a_label_process
	testl	%eax, %eax
	je	L622
	movl	$-1, %eax
	jmp	L621
L622:
	call	_a_spskip
	movl	_a_linebufp, %eax
	movzbl	(%eax), %eax
	testb	%al, %al
	je	L623
	movl	_a_linebufp, %eax
	movzbl	(%eax), %eax
	cmpb	$59, %al
	jne	L624
L623:
	call	_a_listout
	jmp	L625
L624:
	call	_a_opcode
	movl	%eax, -12(%ebp)
	cmpl	$-1, -12(%ebp)
	jne	L626
	movl	$-1, %eax
	jmp	L621
L626:
	call	_a_spskip
	movl	_a_linebufp, %eax
	movzbl	(%eax), %eax
	testb	%al, %al
	je	L627
	movl	_a_linebufp, %eax
	movzbl	(%eax), %eax
	cmpb	$59, %al
	jne	L628
L627:
	cmpl	$0, -12(%ebp)
	jne	L631
	call	_a_listout
	movl	_a_addr, %eax
	movl	(%eax), %edx
	movl	_a_inst_ptr, %eax
	movl	%eax, %ecx
	movl	_a_addr, %eax
	addl	%ecx, %edx
	movl	%edx, (%eax)
	jmp	L631
L628:
	movl	$2560, 4(%esp)
	movl	$2, (%esp)
	call	_a_error_message
	movl	$-1, %eax
	jmp	L621
L631:
	nop
L625:
	movl	_a_linenumb, %eax
	addl	$1, %eax
	movl	%eax, _a_linenumb
	jmp	L630
L621:
	leave
	.cfi_restore 5
	.cfi_def_cfa 4, 4
	ret
	.cfi_endproc
LFE62:
	.data
	.align 4
LC138:
	.ascii "registration %s *** MULTILPLE_DEFINITION\12\0"
	.text
	.globl	_registration
	.def	_registration;	.scl	2;	.type	32;	.endef
_registration:
LFB63:
	.cfi_startproc
	pushl	%ebp
	.cfi_def_cfa_offset 8
	.cfi_offset 5, -8
	movl	%esp, %ebp
	.cfi_def_cfa_register 5
	subl	$40, %esp
	movl	$0, -12(%ebp)
	jmp	L633
L636:
	movl	-12(%ebp), %edx
	movl	%edx, %eax
	addl	%eax, %eax
	addl	%edx, %eax
	sall	$2, %eax
	addl	$_a_sym_code, %eax
	movl	(%eax), %eax
	movl	%eax, 4(%esp)
	movl	$_a_symbuf, (%esp)
	call	_strcpy
	call	_a_symsrch
	movl	%eax, -16(%ebp)
	cmpl	$0, -16(%ebp)
	js	L634
	movl	-12(%ebp), %edx
	movl	%edx, %eax
	addl	%eax, %eax
	addl	%edx, %eax
	sall	$2, %eax
	addl	$_a_sym_code, %eax
	movl	(%eax), %edx
	movl	_cmd_sht, %eax
	movl	%edx, 8(%esp)
	movl	$LC138, 4(%esp)
	movl	%eax, (%esp)
	call	_ut_printf
	movl	$-1, %eax
	jmp	L635
L634:
	movl	_a_symtbl_ptr, %edx
	movl	%edx, %eax
	sall	$3, %eax
	addl	%edx, %eax
	sall	$3, %eax
	addl	$_a_symtbl, %eax
	movl	$_a_symbuf, 4(%esp)
	movl	%eax, (%esp)
	call	_strcpy
	movl	_a_symtbl_ptr, %ecx
	movl	-12(%ebp), %edx
	movl	%edx, %eax
	addl	%eax, %eax
	addl	%edx, %eax
	sall	$2, %eax
	addl	$_a_sym_code+4, %eax
	movl	(%eax), %edx
	movl	%ecx, %eax
	sall	$3, %eax
	addl	%ecx, %eax
	sall	$3, %eax
	addl	$_a_symtbl+64, %eax
	movl	%edx, (%eax)
	movl	-12(%ebp), %edx
	movl	%edx, %eax
	addl	%eax, %eax
	addl	%edx, %eax
	sall	$2, %eax
	addl	$_a_sym_code+8, %eax
	movl	(%eax), %eax
	movl	_a_symtbl_ptr, %edx
	movl	%eax, %ecx
	movl	%edx, %eax
	sall	$3, %eax
	addl	%edx, %eax
	sall	$3, %eax
	addl	$_a_symtbl+68, %eax
	movl	%ecx, (%eax)
	movl	_a_symtbl_ptr, %eax
	addl	$1, %eax
	movl	%eax, _a_symtbl_ptr
	addl	$1, -12(%ebp)
L633:
	movl	-12(%ebp), %edx
	movl	%edx, %eax
	addl	%eax, %eax
	addl	%edx, %eax
	sall	$2, %eax
	addl	$_a_sym_code, %eax
	movl	(%eax), %eax
	testl	%eax, %eax
	jne	L636
	movl	$0, %eax
L635:
	leave
	.cfi_restore 5
	.cfi_def_cfa 4, 4
	ret
	.cfi_endproc
LFE63:
	.data
LC139:
	.ascii "*** obj addr overlap %x\12\0"
LC140:
	.ascii "*** obj file type error %d\12\0"
	.text
	.globl	_a_binout
	.def	_a_binout;	.scl	2;	.type	32;	.endef
_a_binout:
LFB64:
	.cfi_startproc
	pushl	%ebp
	.cfi_def_cfa_offset 8
	.cfi_offset 5, -8
	movl	%esp, %ebp
	.cfi_def_cfa_register 5
	subl	$56, %esp
	movl	8(%ebp), %eax
	movl	$-1, (%eax)
	movl	12(%ebp), %eax
	movl	$0, (%eax)
	movl	$0, -16(%ebp)
	jmp	L638
L647:
	movl	_a_objfile, %ecx
	movl	-16(%ebp), %eax
	leal	1(%eax), %edx
	movl	%edx, -16(%ebp)
	addl	%ecx, %eax
	movzbl	(%eax), %eax
	movzbl	%al, %eax
	movl	%eax, -24(%ebp)
	movl	_a_objfile, %ecx
	movl	-16(%ebp), %eax
	leal	1(%eax), %edx
	movl	%edx, -16(%ebp)
	addl	%ecx, %eax
	movzbl	(%eax), %eax
	movzbl	%al, %eax
	movl	%eax, -28(%ebp)
	cmpl	$1, -28(%ebp)
	jne	L639
	subl	$5, -24(%ebp)
	movl	_a_objfile, %edx
	movl	-16(%ebp), %eax
	addl	%edx, %eax
	movl	(%eax), %eax
	movl	%eax, -12(%ebp)
	addl	$4, -16(%ebp)
	movl	$0, -20(%ebp)
	jmp	L640
L645:
	movl	8(%ebp), %eax
	movl	(%eax), %eax
	cmpl	%eax, -12(%ebp)
	jnb	L641
	movl	8(%ebp), %eax
	movl	-12(%ebp), %edx
	movl	%edx, (%eax)
L641:
	movl	12(%ebp), %eax
	movl	(%eax), %eax
	cmpl	%eax, -12(%ebp)
	jbe	L642
	movl	12(%ebp), %eax
	movl	-12(%ebp), %edx
	movl	%edx, (%eax)
L642:
	movl	_a_bindata, %edx
	movl	-12(%ebp), %eax
	addl	%edx, %eax
	movzbl	(%eax), %eax
	testb	%al, %al
	jne	L643
	movl	_cmd_sht, %eax
	movl	-12(%ebp), %edx
	movl	%edx, 8(%esp)
	movl	$LC139, 4(%esp)
	movl	%eax, (%esp)
	call	_ut_printf
	movl	$-1, %eax
	jmp	L644
L643:
	movl	_a_bindata, %edx
	movl	-12(%ebp), %eax
	addl	%edx, %eax
	movb	$0, (%eax)
	movl	_a_objfile, %ecx
	movl	-16(%ebp), %eax
	leal	1(%eax), %edx
	movl	%edx, -16(%ebp)
	addl	%ecx, %eax
	movl	_a_binfile, %ecx
	movl	-12(%ebp), %edx
	addl	%ecx, %edx
	movzbl	(%eax), %eax
	movb	%al, (%edx)
	addl	$1, -12(%ebp)
	addl	$1, -20(%ebp)
L640:
	movl	-20(%ebp), %eax
	cmpl	-24(%ebp), %eax
	jl	L645
	jmp	L638
L639:
	cmpl	$2, -28(%ebp)
	jne	L646
	movl	-24(%ebp), %eax
	subl	$1, %eax
	addl	%eax, -16(%ebp)
	jmp	L638
L646:
	movl	_cmd_sht, %eax
	movl	-28(%ebp), %edx
	movl	%edx, 8(%esp)
	movl	$LC140, 4(%esp)
	movl	%eax, (%esp)
	call	_ut_printf
	movl	$-1, %eax
	jmp	L644
L638:
	movl	_a_objfile_ptr, %eax
	cmpl	%eax, -16(%ebp)
	jl	L647
	movl	12(%ebp), %eax
	movl	(%eax), %edx
	movl	8(%ebp), %eax
	movl	(%eax), %eax
	cmpl	%eax, %edx
	jnb	L648
	movl	8(%ebp), %eax
	movl	$0, (%eax)
	movl	8(%ebp), %eax
	movl	(%eax), %edx
	movl	12(%ebp), %eax
	movl	%edx, (%eax)
	jmp	L649
L648:
	movl	12(%ebp), %eax
	movl	(%eax), %eax
	leal	1(%eax), %edx
	movl	12(%ebp), %eax
	movl	%edx, (%eax)
L649:
	movl	$0, %eax
L644:
	leave
	.cfi_restore 5
	.cfi_def_cfa 4, 4
	ret
	.cfi_endproc
LFE64:
	.data
LC141:
	.ascii "*** out of memory\12\0"
LC142:
	.ascii "[PASS1]\12\0"
LC143:
	.ascii "[PASS2]\12\0"
LC144:
	.ascii "[PASS3]\12\0"
LC145:
	.ascii "srcfile %d/%d\12\0"
LC146:
	.ascii "objfile %d/%d\12\0"
LC147:
	.ascii "binfile %d/%d\12\0"
LC148:
	.ascii "symtbl  %d/%d\12\0"
LC149:
	.ascii "section %d/%d\12\0"
LC150:
	.ascii "=== success\12\0"
	.text
	.globl	_asm_main
	.def	_asm_main;	.scl	2;	.type	32;	.endef
_asm_main:
LFB65:
	.cfi_startproc
	pushl	%ebp
	.cfi_def_cfa_offset 8
	.cfi_offset 5, -8
	movl	%esp, %ebp
	.cfi_def_cfa_register 5
	subl	$24, %esp
	movl	_sed_buf, %eax
	movl	%eax, _a_srcfile
	movl	$1048576, (%esp)
	call	_memman_alloc
	movl	%eax, _a_objfile
	movl	$1048576, (%esp)
	call	_memman_alloc
	movl	%eax, _a_binfile
	movl	$1048576, (%esp)
	call	_memman_alloc
	movl	%eax, _a_bindata
	movl	_a_objfile, %eax
	testl	%eax, %eax
	je	L651
	movl	_a_binfile, %eax
	testl	%eax, %eax
	je	L651
	movl	_a_bindata, %eax
	testl	%eax, %eax
	jne	L652
L651:
	movl	_cmd_sht, %eax
	movl	$LC141, 4(%esp)
	movl	%eax, (%esp)
	call	_ut_printf
	movl	$-1, %eax
	jmp	L653
L652:
	movl	_a_srcfile, %eax
	movl	%eax, (%esp)
	call	_strlen
	movl	%eax, _a_srcfile_len
	movl	_a_binfile, %eax
	movl	$1048576, 8(%esp)
	movl	$0, 4(%esp)
	movl	%eax, (%esp)
	call	_memset
	movl	_a_bindata, %eax
	movl	$1048576, 8(%esp)
	movl	$255, 4(%esp)
	movl	%eax, (%esp)
	call	_memset
	movl	$720000, 8(%esp)
	movl	$0, 4(%esp)
	movl	$_a_symtbl, (%esp)
	call	_memset
	movl	$0, _a_symtbl_ptr
	call	_registration
	testl	%eax, %eax
	je	L654
	movl	$-1, %eax
	jmp	L653
L654:
	movl	$6800, 8(%esp)
	movl	$0, 4(%esp)
	movl	$_a_section, (%esp)
	call	_memset
	movl	$0, _a_section_ptr
	movl	$0, _a_objfile_ptr
	movl	$_a_section+64, _a_addr
	movl	$0, _a_srcfile_ptr
	movl	_cmd_sht, %eax
	movl	$LC142, 4(%esp)
	movl	%eax, (%esp)
	call	_ut_printf
	movl	$1, _a_pass
	call	_a_asm
	testl	%eax, %eax
	je	L655
	movl	$-1, %eax
	jmp	L653
L655:
	movl	_cmd_sht, %eax
	movl	$LC143, 4(%esp)
	movl	%eax, (%esp)
	call	_ut_printf
	movl	$_a_section+64, _a_addr
	movl	$0, _a_srcfile_ptr
	movl	$6800, 8(%esp)
	movl	$0, 4(%esp)
	movl	$_a_section, (%esp)
	call	_memset
	movl	$0, _a_section_ptr
	movl	$0, _a_objfile_ptr
	movl	$2, _a_pass
	movl	$0, _a_chg_flag
	call	_a_asm
	testl	%eax, %eax
	je	L656
	movl	$-1, %eax
	jmp	L653
L656:
	movl	_a_chg_flag, %eax
	testl	%eax, %eax
	je	L662
	jmp	L655
L662:
	nop
	movl	_cmd_sht, %eax
	movl	$LC144, 4(%esp)
	movl	%eax, (%esp)
	call	_ut_printf
	movl	$_a_section+64, _a_addr
	movl	$0, _a_srcfile_ptr
	movl	$6800, 8(%esp)
	movl	$0, 4(%esp)
	movl	$_a_section, (%esp)
	call	_memset
	movl	$0, _a_section_ptr
	movl	$0, _a_objfile_ptr
	movl	$3, _a_pass
	call	_a_asm
	testl	%eax, %eax
	je	L659
	movl	$-1, %eax
	jmp	L653
L659:
	movl	$_a_addr_end, 4(%esp)
	movl	$_a_addr_top, (%esp)
	call	_a_binout
	testl	%eax, %eax
	je	L660
	movl	$-1, %eax
	jmp	L653
L660:
	movl	_a_srcfile_ptr, %edx
	movl	_cmd_sht, %eax
	movl	$1048576, 12(%esp)
	movl	%edx, 8(%esp)
	movl	$LC145, 4(%esp)
	movl	%eax, (%esp)
	call	_ut_printf
	movl	_a_objfile_ptr, %edx
	movl	_cmd_sht, %eax
	movl	$1048576, 12(%esp)
	movl	%edx, 8(%esp)
	movl	$LC146, 4(%esp)
	movl	%eax, (%esp)
	call	_ut_printf
	movl	_a_addr_end, %edx
	movl	_cmd_sht, %eax
	movl	$1048576, 12(%esp)
	movl	%edx, 8(%esp)
	movl	$LC147, 4(%esp)
	movl	%eax, (%esp)
	call	_ut_printf
	movl	_a_symtbl_ptr, %edx
	movl	_cmd_sht, %eax
	movl	$10000, 12(%esp)
	movl	%edx, 8(%esp)
	movl	$LC148, 4(%esp)
	movl	%eax, (%esp)
	call	_ut_printf
	movl	_a_section_ptr, %edx
	movl	_cmd_sht, %eax
	movl	$100, 12(%esp)
	movl	%edx, 8(%esp)
	movl	$LC149, 4(%esp)
	movl	%eax, (%esp)
	call	_ut_printf
	movl	_cmd_sht, %eax
	movl	$LC150, 4(%esp)
	movl	%eax, (%esp)
	call	_ut_printf
	movl	$0, %eax
L653:
	leave
	.cfi_restore 5
	.cfi_def_cfa 4, 4
	ret
	.cfi_endproc
LFE65:
	.ident	"GCC: (GNU) 10.2.0"
	.def	_ut_printf;	.scl	2;	.type	32;	.endef
	.def	_strcmp;	.scl	2;	.type	32;	.endef
	.def	_memset;	.scl	2;	.type	32;	.endef
	.def	_strcpy;	.scl	2;	.type	32;	.endef
	.def	_memman_alloc;	.scl	2;	.type	32;	.endef
	.def	_strlen;	.scl	2;	.type	32;	.endef
